(dp0
F1.0
(lp1
F0.0003176082395643802
aF5.207938998980735e-05
aF0.00012731537827530187
asF2.0
(lp2
F0.0003176082395643802
aF5.207938998980735e-05
aF0.00012731537827530187
asF3.0
(lp3
F0.0003176082395643802
aF5.207938998980735e-05
aF0.00012731537827530187
asF4.0
(lp4
F0.0003176082395643802
aF5.207938998980735e-05
aF0.00012731537827530187
asF5.0
(lp5
F0.0003176082395643802
aF5.207938998980735e-05
aF0.00012731537827530187
asF6.0
(lp6
F0.0003176082395643802
aF5.207938998980735e-05
aF0.00012731537827530187
asF7.0
(lp7
F0.0003176082395643802
aF5.207938998980735e-05
aF0.00012731537827530187
asF8.0
(lp8
F0.0003176082395643802
aF5.207938998980735e-05
aF0.00012731537827530187
asF9.0
(lp9
F0.0003176082395643802
aF5.207938998980735e-05
aF0.00012731537827530187
asF10.0
(lp10
F0.0003176082395643802
aF5.207938998980735e-05
aF0.00012731537827530187
asF11.0
(lp11
F0.0003176082395643802
aF5.207938998980735e-05
aF0.00012731537827530187
asF12.0
(lp12
F0.0003176082395643802
aF5.207938998980735e-05
aF0.00012731537827530187
asF13.0
(lp13
F0.0003176082395643802
aF5.207938998980735e-05
aF0.00012731537827530187
asF14.0
(lp14
F0.0003176082395643802
aF5.207938998980735e-05
aF0.00012731537827530187
asF15.0
(lp15
F0.0003176082395643802
aF5.207938998980735e-05
aF0.00012731537827530187
asF16.0
(lp16
F0.0003176082395643802
aF5.207938998980735e-05
aF0.00012731537827530187
asF17.0
(lp17
F0.0003176082395643802
aF5.207938998980735e-05
aF0.00012731537827530187
asF18.0
(lp18
F0.0003176082395643802
aF5.207938998980735e-05
aF0.00012731537827530187
asF19.0
(lp19
F0.0003176082395643802
aF5.207938998980735e-05
aF0.00012731537827530187
asF20.0
(lp20
F0.0003176082395643802
aF5.207938998980735e-05
aF0.00012731537827530187
asF21.0
(lp21
F0.0003176082395643802
aF5.207938998980735e-05
aF0.00012731537827530187
asF22.0
(lp22
F0.0003176082395643802
aF5.207938998980735e-05
aF0.00012731537827530187
asF23.0
(lp23
F0.0003176082395643802
aF5.207938998980735e-05
aF0.00012731537827530187
asF24.0
(lp24
F0.0003176082395643802
aF5.207938998980735e-05
aF0.00012731537827530187
asF25.0
(lp25
F0.0003176082395643802
aF5.207938998980735e-05
aF0.00012731537827530187
asF26.0
(lp26
F0.0003176082395643802
aF5.207938998980735e-05
aF0.00012731537827530187
asF27.0
(lp27
F0.0003176082395643802
aF5.207938998980735e-05
aF0.00012731537827530187
asF28.0
(lp28
F0.0003176082395643802
aF5.207938998980735e-05
aF0.00012731537827530187
asF29.0
(lp29
F0.0003176082395643802
aF5.207938998980735e-05
aF0.00012731537827530187
asF30.0
(lp30
F0.0003176082395643802
aF5.207938998980735e-05
aF0.00012731537827530187
asF31.0
(lp31
F0.0003176082395643802
aF5.207938998980735e-05
aF0.00012731537827530187
asF32.0
(lp32
F0.0003176082395643802
aF5.207938998980735e-05
aF0.00012731537827530187
asF33.0
(lp33
F0.0003176082395643802
aF5.207938998980735e-05
aF0.00012731537827530187
asF34.0
(lp34
F0.0003176082395643802
aF5.207938998980735e-05
aF0.00012731537827530187
asF35.0
(lp35
F0.0003176082395643802
aF5.207938998980735e-05
aF0.00012731537827530187
asF36.0
(lp36
F0.0003176082395643802
aF5.207938998980735e-05
aF0.00012731537827530187
asF37.0
(lp37
F0.0003176082395643802
aF5.207938998980735e-05
aF0.00012731537827530187
asF38.0
(lp38
F0.0003176082395643802
aF5.207938998980735e-05
aF0.00012731537827530187
asF39.0
(lp39
F0.0003176082395643802
aF5.207938998980735e-05
aF0.00012731537827530187
asF40.0
(lp40
F0.0003176082395643802
aF5.207938998980735e-05
aF0.00012731537827530187
asF41.0
(lp41
F0.0003176082395643802
aF5.207938998980735e-05
aF0.00012731537827530187
asF42.0
(lp42
F0.0003176082395643802
aF5.207938998980735e-05
aF0.00012731537827530187
asF43.0
(lp43
F0.0003176082395643802
aF5.207938998980735e-05
aF0.00012731537827530187
asF44.0
(lp44
F0.0003176082395643802
aF5.207938998980735e-05
aF0.00012731537827530187
asF45.0
(lp45
F0.0003176082395643802
aF5.207938998980735e-05
aF0.00012731537827530187
asF46.0
(lp46
F0.0003176082395643802
aF5.207938998980735e-05
aF0.00012731537827530187
asF47.0
(lp47
F0.0003176082395643802
aF5.207938998980735e-05
aF0.00012731537827530187
asF48.0
(lp48
F0.0003176082395643802
aF5.207938998980735e-05
aF0.00012731537827530187
asF49.0
(lp49
F0.0003176082395643802
aF5.207938998980735e-05
aF0.00012731537827530187
asF50.0
(lp50
F0.0003176082395643802
aF5.207938998980735e-05
aF0.00012731537827530187
asF51.0
(lp51
F0.0003176082395643802
aF5.207938998980735e-05
aF0.00012731537827530187
asF52.0
(lp52
F0.0003176082395643802
aF5.207938998980735e-05
aF0.00012731537827530187
asF53.0
(lp53
F0.0003176082395643802
aF5.207938998980735e-05
aF0.00012731537827530187
asF54.0
(lp54
F0.0003176082395643802
aF5.207938998980735e-05
aF0.00012731537827530187
asF55.0
(lp55
F0.0003176082395643802
aF5.207938998980735e-05
aF0.00012731537827530187
asF56.0
(lp56
F0.0003176082395643802
aF5.207938998980735e-05
aF0.00012731537827530187
asF57.0
(lp57
F0.0003176082395643802
aF5.207938998980735e-05
aF0.00012731537827530187
asF58.0
(lp58
F0.0003176082395643802
aF5.207938998980735e-05
aF0.00012731537827530187
asF59.0
(lp59
F0.0003176082395643802
aF5.207938998980735e-05
aF0.00012731537827530187
asF60.0
(lp60
F0.0003176082395643802
aF5.207938998980735e-05
aF0.00012731537827530187
asF61.0
(lp61
F0.0003176082395643802
aF5.207938998980735e-05
aF0.00012731537827530187
asF62.0
(lp62
F0.0003176082395643802
aF5.207938998980735e-05
aF0.00012731537827530187
asF63.0
(lp63
F0.0003176082395643802
aF5.207938998980735e-05
aF0.00012731537827530187
asF64.0
(lp64
F0.0003176082395643802
aF5.207938998980735e-05
aF0.00012731537827530187
asF65.0
(lp65
F0.0003176082395643802
aF5.207938998980735e-05
aF0.00012731537827530187
asF66.0
(lp66
F0.0003176082395643802
aF5.207938998980735e-05
aF0.00012731537827530187
asF67.0
(lp67
F0.0003176082395643802
aF5.207938998980735e-05
aF0.00012731537827530187
asF68.0
(lp68
F0.0003176082395643802
aF5.207938998980735e-05
aF0.00012731537827530187
asF69.0
(lp69
F0.0003176082395643802
aF5.207938998980735e-05
aF0.00012731537827530187
asF70.0
(lp70
F0.0003176082395643802
aF5.207938998980735e-05
aF0.00012731537827530187
asF71.0
(lp71
F0.0003176082395643802
aF5.207938998980735e-05
aF0.00012731537827530187
asF72.0
(lp72
F0.0003176082395643802
aF5.207938998980735e-05
aF0.00012731537827530187
asF73.0
(lp73
F0.0003176082395643802
aF5.207938998980735e-05
aF0.00012731537827530187
asF74.0
(lp74
F0.0003176082395643802
aF5.207938998980735e-05
aF0.00012731537827530187
asF75.0
(lp75
F0.0003176082395643802
aF5.207938998980735e-05
aF0.00012731537827530187
asF76.0
(lp76
F0.0003176082395643802
aF5.207938998980735e-05
aF0.00012731537827530187
asF77.0
(lp77
F0.0003176082395643802
aF5.207938998980735e-05
aF0.00012731537827530187
asF78.0
(lp78
F0.0003176082395643802
aF5.207938998980735e-05
aF0.00012731537827530187
asF79.0
(lp79
F0.0003176082395643802
aF5.207938998980735e-05
aF0.00012731537827530187
asF80.0
(lp80
F0.0003176082395643802
aF5.207938998980735e-05
aF0.00012731537827530187
asF81.0
(lp81
F0.0003176082395643802
aF5.207938998980735e-05
aF0.00012731537827530187
asF82.0
(lp82
F0.0003176082395643802
aF5.207938998980735e-05
aF0.00012731537827530187
asF83.0
(lp83
F0.0003176082395643802
aF5.207938998980735e-05
aF0.00012731537827530187
asF84.0
(lp84
F0.0003176082395643802
aF5.207938998980735e-05
aF0.00012731537827530187
asF85.0
(lp85
F0.0003176082395643802
aF5.207938998980735e-05
aF0.00012731537827530187
asF86.0
(lp86
F0.0003176082395643802
aF5.207938998980735e-05
aF0.00012731537827530187
asF87.0
(lp87
F0.0003176082395643802
aF5.207938998980735e-05
aF0.00012731537827530187
asF88.0
(lp88
F0.0003176082395643802
aF5.207938998980735e-05
aF0.00012731537827530187
asF89.0
(lp89
F0.0003176082395643802
aF5.207938998980735e-05
aF0.00012731537827530187
asF90.0
(lp90
F0.0003176082395643802
aF5.207938998980735e-05
aF0.00012731537827530187
asF91.0
(lp91
F0.0003176082395643802
aF5.207938998980735e-05
aF0.00012731537827530187
asF92.0
(lp92
F0.0003176082395643802
aF5.207938998980735e-05
aF0.00012731537827530187
asF93.0
(lp93
F0.0003176082395643802
aF5.207938998980735e-05
aF0.00012731537827530187
asF94.0
(lp94
F0.0003176082395643802
aF5.207938998980735e-05
aF0.00012731537827530187
asF95.0
(lp95
F0.0003176082395643802
aF5.207938998980735e-05
aF0.00012731537827530187
asF96.0
(lp96
F0.0003176082395643802
aF5.207938998980735e-05
aF0.00012731537827530187
asF97.0
(lp97
F0.0003176082395643802
aF5.207938998980735e-05
aF0.00012731537827530187
asF98.0
(lp98
F0.0003176082395643802
aF5.207938998980735e-05
aF0.00012731537827530187
asF99.0
(lp99
F0.0003176082395643802
aF5.207938998980735e-05
aF0.00012731537827530187
asF100.0
(lp100
F0.0003176082395643802
aF5.207938998980735e-05
aF0.00012731537827530187
asF101.0
(lp101
F0.0003176082395643802
aF5.207938998980735e-05
aF0.00012731537827530187
asF102.0
(lp102
F0.0003176082395643802
aF5.207938998980735e-05
aF0.00012731537827530187
asF103.0
(lp103
F0.0003176082395643802
aF5.207938998980735e-05
aF0.00012731537827530187
asF104.0
(lp104
F0.0003176082395643802
aF5.207938998980735e-05
aF0.00012731537827530187
asF105.0
(lp105
F0.0003176082395643802
aF5.207938998980735e-05
aF0.00012731537827530187
asF106.0
(lp106
F0.0003176082395643802
aF5.207938998980735e-05
aF0.00012731537827530187
asF107.0
(lp107
F0.0003176082395643802
aF5.207938998980735e-05
aF0.00012731537827530187
asF108.0
(lp108
F0.0003176082395643802
aF5.207938998980735e-05
aF0.00012731537827530187
asF109.0
(lp109
F0.0003176082395643802
aF5.207938998980735e-05
aF0.00012731537827530187
asF110.0
(lp110
F0.0003176082395643802
aF5.207938998980735e-05
aF0.00012731537827530187
asF111.0
(lp111
F0.0003176082395643802
aF5.207938998980735e-05
aF0.00012731537827530187
asF112.0
(lp112
F0.0003176082395643802
aF5.207938998980735e-05
aF0.00012731537827530187
asF113.0
(lp113
F0.0003176082395643802
aF5.207938998980735e-05
aF0.00012731537827530187
asF114.0
(lp114
F0.0003176082395643802
aF5.207938998980735e-05
aF0.00012731537827530187
asF115.0
(lp115
F0.0003176082395643802
aF5.207938998980735e-05
aF0.00012731537827530187
asF116.0
(lp116
F0.0003176082395643802
aF5.207938998980735e-05
aF0.00012731537827530187
asF117.0
(lp117
F0.0003176082395643802
aF5.207938998980735e-05
aF0.00012731537827530187
asF118.0
(lp118
F0.0003176082395643802
aF5.207938998980735e-05
aF0.00012731537827530187
asF119.0
(lp119
F0.0003176082395643802
aF5.207938998980735e-05
aF0.00012731537827530187
asF120.0
(lp120
F0.0003176082395643802
aF5.207938998980735e-05
aF0.00012731537827530187
asF121.0
(lp121
F0.0003176082395643802
aF5.207938998980735e-05
aF0.00012731537827530187
asF122.0
(lp122
F0.0003176082395643802
aF5.207938998980735e-05
aF0.00012731537827530187
asF123.0
(lp123
F0.0003176082395643802
aF5.207938998980735e-05
aF0.00012731537827530187
asF124.0
(lp124
F0.0003176082395643802
aF5.207938998980735e-05
aF0.00012731537827530187
asF125.0
(lp125
F0.0003176082395643802
aF5.207938998980735e-05
aF0.00012731537827530187
asF126.0
(lp126
F0.0003176082395643802
aF5.207938998980735e-05
aF0.00012731537827530187
asF127.0
(lp127
F0.0003176082395643802
aF5.207938998980735e-05
aF0.00012731537827530187
asF128.0
(lp128
F0.0003176082395643802
aF5.207938998980735e-05
aF0.00012731537827530187
asF129.0
(lp129
F0.0003176082395643802
aF5.207938998980735e-05
aF0.00012731537827530187
asF130.0
(lp130
F0.0003176082395643802
aF5.207938998980735e-05
aF0.00012731537827530187
asF131.0
(lp131
F0.0003176082395643802
aF5.207938998980735e-05
aF0.00012731537827530187
asF132.0
(lp132
F0.0003176082395643802
aF5.207938998980735e-05
aF0.00012731537827530187
asF133.0
(lp133
F0.0003176082395643802
aF5.207938998980735e-05
aF0.00012731537827530187
asF134.0
(lp134
F0.0003176082395643802
aF5.207938998980735e-05
aF0.00012731537827530187
asF135.0
(lp135
F0.0003176082395643802
aF5.207938998980735e-05
aF0.00012731537827530187
asF136.0
(lp136
F0.0003176082395643802
aF5.207938998980735e-05
aF0.00012731537827530187
asF137.0
(lp137
F0.0003176082395643802
aF5.207938998980735e-05
aF0.00012731537827530187
asF138.0
(lp138
F0.0003176082395643802
aF5.207938998980735e-05
aF0.00012731537827530187
asF139.0
(lp139
F0.0003176082395643802
aF5.207938998980735e-05
aF0.00012731537827530187
asF140.0
(lp140
F0.0003176082395643802
aF5.207938998980735e-05
aF0.00012731537827530187
asF141.0
(lp141
F0.0003176082395643802
aF5.207938998980735e-05
aF0.00012731537827530187
asF142.0
(lp142
F0.0003176082395643802
aF5.207938998980735e-05
aF0.00012731537827530187
asF143.0
(lp143
F0.0003176082395643802
aF5.207938998980735e-05
aF0.00012731537827530187
asF144.0
(lp144
F0.0003176082395643802
aF5.207938998980735e-05
aF0.00012731537827530187
asF145.0
(lp145
F0.0003176082395643802
aF5.207938998980735e-05
aF0.00012731537827530187
asF146.0
(lp146
F0.0003176082395643802
aF5.207938998980735e-05
aF0.00012731537827530187
asF147.0
(lp147
F0.0003176082395643802
aF5.207938998980735e-05
aF0.00012731537827530187
asF148.0
(lp148
F0.0003176082395643802
aF5.207938998980735e-05
aF0.00012731537827530187
asF149.0
(lp149
F0.0003176082395643802
aF5.207938998980735e-05
aF0.00012731537827530187
asF150.0
(lp150
F0.0003176082395643802
aF5.207938998980735e-05
aF0.00012731537827530187
asF151.0
(lp151
F0.0003176082395643802
aF5.207938998980735e-05
aF0.00012731537827530187
asF152.0
(lp152
F0.0003176082395643802
aF5.207938998980735e-05
aF0.00012731537827530187
asF153.0
(lp153
F0.0003176082395643802
aF5.207938998980735e-05
aF0.00012731537827530187
asF154.0
(lp154
F0.0003176082395643802
aF5.207938998980735e-05
aF0.00012731537827530187
asF155.0
(lp155
F0.0003176082395643802
aF5.207938998980735e-05
aF0.00012731537827530187
asF156.0
(lp156
F0.0003176082395643802
aF5.207938998980735e-05
aF0.00012731537827530187
asF157.0
(lp157
F0.0003176082395643802
aF5.207938998980735e-05
aF0.00012731537827530187
asF158.0
(lp158
F0.0003176082395643802
aF5.207938998980735e-05
aF0.00012731537827530187
asF159.0
(lp159
F0.0003176082395643802
aF5.207938998980735e-05
aF0.00012731537827530187
asF160.0
(lp160
F0.0003176082395643802
aF5.207938998980735e-05
aF0.00012731537827530187
asF161.0
(lp161
F0.0003176082395643802
aF5.207938998980735e-05
aF0.00012731537827530187
asF162.0
(lp162
F0.0003176082395643802
aF5.207938998980735e-05
aF0.00012731537827530187
asF163.0
(lp163
F0.0003176082395643802
aF5.207938998980735e-05
aF0.00012731537827530187
asF164.0
(lp164
F0.0003176082395643802
aF5.207938998980735e-05
aF0.00012731537827530187
asF165.0
(lp165
F0.0003176082395643802
aF5.207938998980735e-05
aF0.00012731537827530187
asF166.0
(lp166
F0.0003176082395643802
aF5.207938998980735e-05
aF0.00012731537827530187
asF167.0
(lp167
F0.0003176082395643802
aF5.207938998980735e-05
aF0.00012731537827530187
asF168.0
(lp168
F0.0003176082395643802
aF5.207938998980735e-05
aF0.00012731537827530187
asF169.0
(lp169
F0.0003176082395643802
aF5.207938998980735e-05
aF0.00012731537827530187
asF170.0
(lp170
F0.0003176082395643802
aF5.207938998980735e-05
aF0.00012731537827530187
asF171.0
(lp171
F0.0003176082395643802
aF5.207938998980735e-05
aF0.00012731537827530187
asF172.0
(lp172
F0.0003176082395643802
aF5.207938998980735e-05
aF0.00012731537827530187
asF173.0
(lp173
F0.0003176082395643802
aF5.207938998980735e-05
aF0.00012731537827530187
asF174.0
(lp174
F0.0003176082395643802
aF5.207938998980735e-05
aF0.00012731537827530187
asF175.0
(lp175
F0.0003176082395643802
aF5.207938998980735e-05
aF0.00012731537827530187
asF176.0
(lp176
F0.0003176082395643802
aF5.207938998980735e-05
aF0.00012731537827530187
asF177.0
(lp177
F0.0003176082395643802
aF5.207938998980735e-05
aF0.00012731537827530187
asF178.0
(lp178
F0.0003176082395643802
aF5.207938998980735e-05
aF0.00012731537827530187
asF179.0
(lp179
F0.0003176082395643802
aF5.207938998980735e-05
aF0.00012731537827530187
asF180.0
(lp180
F0.0003176082395643802
aF5.207938998980735e-05
aF0.00012731537827530187
asF181.0
(lp181
F0.0003176082395643802
aF5.207938998980735e-05
aF0.00012731537827530187
asF182.0
(lp182
F0.0003176082395643802
aF5.207938998980735e-05
aF0.00012731537827530187
asF183.0
(lp183
F0.0003176082395643802
aF5.207938998980735e-05
aF0.00012731537827530187
asF184.0
(lp184
F0.0003176082395643802
aF5.207938998980735e-05
aF0.00012731537827530187
asF185.0
(lp185
F0.0003176082395643802
aF5.207938998980735e-05
aF0.00012731537827530187
asF186.0
(lp186
F0.0003176082395643802
aF5.207938998980735e-05
aF0.00012731537827530187
asF187.0
(lp187
F0.0003176082395643802
aF5.207938998980735e-05
aF0.00012731537827530187
asF188.0
(lp188
F0.0003176082395643802
aF5.207938998980735e-05
aF0.00012731537827530187
asF189.0
(lp189
F0.0003176082395643802
aF5.207938998980735e-05
aF0.00012731537827530187
asF190.0
(lp190
F0.0003176082395643802
aF5.207938998980735e-05
aF0.00012731537827530187
asF191.0
(lp191
F0.0003176082395643802
aF5.207938998980735e-05
aF0.00012731537827530187
asF192.0
(lp192
F0.0003176082395643802
aF5.207938998980735e-05
aF0.00012731537827530187
asF193.0
(lp193
F0.0003176082395643802
aF5.207938998980735e-05
aF0.00012731537827530187
asF194.0
(lp194
F0.0003176082395643802
aF5.207938998980735e-05
aF0.00012731537827530187
asF195.0
(lp195
F0.0003176082395643802
aF5.207938998980735e-05
aF0.00012731537827530187
asF196.0
(lp196
F0.0003176082395643802
aF5.207938998980735e-05
aF0.00012731537827530187
asF197.0
(lp197
F0.0003176082395643802
aF5.207938998980735e-05
aF0.00012731537827530187
asF198.0
(lp198
F0.0003176082395643802
aF5.207938998980735e-05
aF0.00012731537827530187
asF199.0
(lp199
F0.0003176082395643802
aF5.207938998980735e-05
aF0.00012731537827530187
asF200.0
(lp200
F0.0003176082395643802
aF5.207938998980735e-05
aF0.00012731537827530187
asF201.0
(lp201
F0.0003176082395643802
aF5.207938998980735e-05
aF0.00012731537827530187
asF202.0
(lp202
F0.0003176082395643802
aF5.207938998980735e-05
aF0.00012731537827530187
asF203.0
(lp203
F0.0003176082395643802
aF5.207938998980735e-05
aF0.00012731537827530187
asF204.0
(lp204
F0.0003176082395643802
aF5.207938998980735e-05
aF0.00012731537827530187
asF205.0
(lp205
F0.0003176082395643802
aF5.207938998980735e-05
aF0.00012731537827530187
asF206.0
(lp206
F0.0003176082395643802
aF5.207938998980735e-05
aF0.00012731537827530187
asF207.0
(lp207
F0.0003176082395643802
aF5.207938998980735e-05
aF0.00012731537827530187
asF208.0
(lp208
F0.0003176082395643802
aF5.207938998980735e-05
aF0.00012731537827530187
asF209.0
(lp209
F0.0003176082395643802
aF5.207938998980735e-05
aF0.00012731537827530187
asF210.0
(lp210
F0.0003176082395643802
aF5.207938998980735e-05
aF0.00012731537827530187
asF211.0
(lp211
F0.0003176082395643802
aF5.207938998980735e-05
aF0.00012731537827530187
asF212.0
(lp212
F0.0003176082395643802
aF5.207938998980735e-05
aF0.00012731537827530187
asF213.0
(lp213
F0.0003176082395643802
aF5.207938998980735e-05
aF0.00012731537827530187
asF214.0
(lp214
F0.0003176082395643802
aF5.207938998980735e-05
aF0.00012731537827530187
asF215.0
(lp215
F0.0003176082395643802
aF5.207938998980735e-05
aF0.00012731537827530187
asF216.0
(lp216
F0.0003176082395643802
aF5.207938998980735e-05
aF0.00012731537827530187
asF217.0
(lp217
F0.0003176082395643802
aF5.207938998980735e-05
aF0.00012731537827530187
asF218.0
(lp218
F0.0003176082395643802
aF5.207938998980735e-05
aF0.00012731537827530187
asF219.0
(lp219
F0.0003176082395643802
aF5.207938998980735e-05
aF0.00012731537827530187
asF220.0
(lp220
F0.0003176082395643802
aF5.207938998980735e-05
aF0.00012731537827530187
asF221.0
(lp221
F0.0003176082395643802
aF5.207938998980735e-05
aF0.00012731537827530187
asF222.0
(lp222
F0.0003176082395643802
aF5.207938998980735e-05
aF0.00012731537827530187
asF223.0
(lp223
F0.0003176082395643802
aF5.207938998980735e-05
aF0.00012731537827530187
asF224.0
(lp224
F0.0003176082395643802
aF5.207938998980735e-05
aF0.00012731537827530187
asF225.0
(lp225
F0.0003176082395643802
aF5.207938998980735e-05
aF0.00012731537827530187
asF226.0
(lp226
F0.0003176082395643802
aF5.207938998980735e-05
aF0.00012731537827530187
asF227.0
(lp227
F0.0003176082395643802
aF5.207938998980735e-05
aF0.00012731537827530187
asF228.0
(lp228
F0.0003176082395643802
aF5.207938998980735e-05
aF0.00012731537827530187
asF229.0
(lp229
F0.0003176082395643802
aF5.207938998980735e-05
aF0.00012731537827530187
asF230.0
(lp230
F0.0003176082395643802
aF5.207938998980735e-05
aF0.00012731537827530187
asF231.0
(lp231
F0.0003176082395643802
aF5.207938998980735e-05
aF0.00012731537827530187
asF232.0
(lp232
F0.0003176082395643802
aF5.207938998980735e-05
aF0.00012731537827530187
asF233.0
(lp233
F0.0003176082395643802
aF5.207938998980735e-05
aF0.00012731537827530187
asF234.0
(lp234
F0.0003176082395643802
aF5.207938998980735e-05
aF0.00012731537827530187
asF235.0
(lp235
F0.0003176082395643802
aF5.207938998980735e-05
aF0.00012731537827530187
asF236.0
(lp236
F0.0003176082395643802
aF5.207938998980735e-05
aF0.00012731537827530187
asF237.0
(lp237
F0.0003176082395643802
aF5.207938998980735e-05
aF0.00012731537827530187
asF238.0
(lp238
F0.0003176082395643802
aF5.207938998980735e-05
aF0.00012731537827530187
asF239.0
(lp239
F0.0003176082395643802
aF5.207938998980735e-05
aF0.00012731537827530187
asF240.0
(lp240
F0.0003176082395643802
aF5.207938998980735e-05
aF0.00012731537827530187
asF241.0
(lp241
F0.0003176082395643802
aF5.207938998980735e-05
aF0.00012731537827530187
asF242.0
(lp242
F0.0003176082395643802
aF5.207938998980735e-05
aF0.00012731537827530187
asF243.0
(lp243
F0.0003176082395643802
aF5.207938998980735e-05
aF0.00012731537827530187
asF244.0
(lp244
F0.0003176082395643802
aF5.207938998980735e-05
aF0.00012731537827530187
asF245.0
(lp245
F0.0003176082395643802
aF5.207938998980735e-05
aF0.00012731537827530187
asF246.0
(lp246
F0.0003176082395643802
aF5.207938998980735e-05
aF0.00012731537827530187
asF247.0
(lp247
F0.0003176082395643802
aF5.207938998980735e-05
aF0.00012731537827530187
asF248.0
(lp248
F0.0003176082395643802
aF5.207938998980735e-05
aF0.00012731537827530187
asF249.0
(lp249
F0.0003176082395643802
aF5.207938998980735e-05
aF0.00012731537827530187
asF250.0
(lp250
F0.0003176082395643802
aF5.207938998980735e-05
aF0.00012731537827530187
asF251.0
(lp251
F0.0003176082395643802
aF5.207938998980735e-05
aF0.00012731537827530187
asF252.0
(lp252
F0.0003176082395643802
aF5.207938998980735e-05
aF0.00012731537827530187
asF253.0
(lp253
F0.0003176082395643802
aF5.207938998980735e-05
aF0.00012731537827530187
asF254.0
(lp254
F0.0003176082395643802
aF5.207938998980735e-05
aF0.00012731537827530187
asF255.0
(lp255
F0.0003176082395643802
aF5.207938998980735e-05
aF0.00012731537827530187
asF256.0
(lp256
F0.0003176082395643802
aF5.207938998980735e-05
aF0.00012731537827530187
asF257.0
(lp257
F0.0003176082395643802
aF5.207938998980735e-05
aF0.00012731537827530187
asF258.0
(lp258
F0.0003176082395643802
aF5.207938998980735e-05
aF0.00012731537827530187
asF259.0
(lp259
F0.0003176082395643802
aF5.207938998980735e-05
aF0.00012731537827530187
asF260.0
(lp260
F0.0003176082395643802
aF5.207938998980735e-05
aF0.00012731537827530187
asF261.0
(lp261
F0.0003176082395643802
aF5.207938998980735e-05
aF0.00012731537827530187
asF262.0
(lp262
F0.0003176082395643802
aF5.207938998980735e-05
aF0.00012731537827530187
asF263.0
(lp263
F0.0003176082395643802
aF5.207938998980735e-05
aF0.00012731537827530187
asF264.0
(lp264
F0.0003176082395643802
aF5.207938998980735e-05
aF0.00012731537827530187
asF265.0
(lp265
F0.0003176082395643802
aF5.207938998980735e-05
aF0.00012731537827530187
asF266.0
(lp266
F0.0003176082395643802
aF5.207938998980735e-05
aF0.00012731537827530187
asF267.0
(lp267
F0.0003176082395643802
aF5.207938998980735e-05
aF0.00012731537827530187
asF268.0
(lp268
F0.0003176082395643802
aF5.207938998980735e-05
aF0.00012731537827530187
asF269.0
(lp269
F0.0003176082395643802
aF5.207938998980735e-05
aF0.00012731537827530187
asF270.0
(lp270
F0.0003176082395643802
aF5.207938998980735e-05
aF0.00012731537827530187
asF271.0
(lp271
F0.0003176082395643802
aF5.207938998980735e-05
aF0.00012731537827530187
asF272.0
(lp272
F0.0003176082395643802
aF5.207938998980735e-05
aF0.00012731537827530187
asF274.0
(lp273
F0.0003176082395643802
aF5.207938998980735e-05
aF0.00012731537827530187
asF275.0
(lp274
F0.0003176082395643802
aF5.207938998980735e-05
aF0.00012731537827530187
asF276.0
(lp275
F0.0003176082395643802
aF5.207938998980735e-05
aF0.00012731537827530187
asF277.0
(lp276
F0.0003176082395643802
aF5.207938998980735e-05
aF0.00012731537827530187
asF278.0
(lp277
F0.0003176082395643802
aF5.207938998980735e-05
aF0.00012731537827530187
asF279.0
(lp278
F0.0003176082395643802
aF5.207938998980735e-05
aF0.00012731537827530187
asF8472.0
(lp279
F0.0003176082395643802
aF5.207938998980735e-05
aF0.00012731537827530187
asF281.0
(lp280
F0.0003176082395643802
aF5.207938998980735e-05
aF0.00012731537827530187
asF282.0
(lp281
F0.0003176082395643802
aF5.207938998980735e-05
aF0.00012731537827530187
asF283.0
(lp282
F0.0003176082395643802
aF5.207938998980735e-05
aF0.00012731537827530187
asF284.0
(lp283
F0.0003176082395643802
aF5.207938998980735e-05
aF0.00012731537827530187
asF285.0
(lp284
F0.0003176082395643802
aF5.207938998980735e-05
aF0.00012731537827530187
asF286.0
(lp285
F0.0003176082395643802
aF5.207938998980735e-05
aF0.00012731537827530187
asF287.0
(lp286
F0.0003176082395643802
aF5.207938998980735e-05
aF0.00012731537827530187
asF288.0
(lp287
F0.0003176082395643802
aF5.207938998980735e-05
aF0.00012731537827530187
asF289.0
(lp288
F0.0003176082395643802
aF5.207938998980735e-05
aF0.00012731537827530187
asF290.0
(lp289
F0.0003176082395643802
aF5.207938998980735e-05
aF0.00012731537827530187
asF291.0
(lp290
F0.0003176082395643802
aF5.207938998980735e-05
aF0.00012731537827530187
asF292.0
(lp291
F0.0003176082395643802
aF5.207938998980735e-05
aF0.00012731537827530187
asF293.0
(lp292
F0.0003176082395643802
aF5.207938998980735e-05
aF0.00012731537827530187
asF294.0
(lp293
F0.0003176082395643802
aF5.207938998980735e-05
aF0.00012731537827530187
asF295.0
(lp294
F0.0003176082395643802
aF5.207938998980735e-05
aF0.00012731537827530187
asF296.0
(lp295
F0.0003176082395643802
aF5.207938998980735e-05
aF0.00012731537827530187
asF297.0
(lp296
F0.0003176082395643802
aF5.207938998980735e-05
aF0.00012731537827530187
asF298.0
(lp297
F0.0003176082395643802
aF5.207938998980735e-05
aF0.00012731537827530187
asF299.0
(lp298
F0.0003176082395643802
aF5.207938998980735e-05
aF0.00012731537827530187
asF300.0
(lp299
F0.0003176082395643802
aF5.207938998980735e-05
aF0.00012731537827530187
asF301.0
(lp300
F0.0003176082395643802
aF5.207938998980735e-05
aF0.00012731537827530187
asF302.0
(lp301
F0.0003176082395643802
aF5.207938998980735e-05
aF0.00012731537827530187
asF303.0
(lp302
F0.0003176082395643802
aF5.207938998980735e-05
aF0.00012731537827530187
asF304.0
(lp303
F0.0003176082395643802
aF5.207938998980735e-05
aF0.00012731537827530187
asF305.0
(lp304
F0.0003176082395643802
aF5.207938998980735e-05
aF0.00012731537827530187
asF306.0
(lp305
F0.0003176082395643802
aF5.207938998980735e-05
aF0.00012731537827530187
asF307.0
(lp306
F0.0003176082395643802
aF5.207938998980735e-05
aF0.00012731537827530187
asF308.0
(lp307
F0.0003176082395643802
aF5.207938998980735e-05
aF0.00012731537827530187
asF309.0
(lp308
F0.0003176082395643802
aF5.207938998980735e-05
aF0.00012731537827530187
asF310.0
(lp309
F0.0003176082395643802
aF5.207938998980735e-05
aF0.00012731537827530187
asF311.0
(lp310
F0.0003176082395643802
aF5.207938998980735e-05
aF0.00012731537827530187
asF312.0
(lp311
F0.0003176082395643802
aF5.207938998980735e-05
aF0.00012731537827530187
asF313.0
(lp312
F0.0003176082395643802
aF5.207938998980735e-05
aF0.00012731537827530187
asF314.0
(lp313
F0.0003176082395643802
aF5.207938998980735e-05
aF0.00012731537827530187
asF315.0
(lp314
F0.0003176082395643802
aF5.207938998980735e-05
aF0.00012731537827530187
asF316.0
(lp315
F0.0003176082395643802
aF5.207938998980735e-05
aF0.00012731537827530187
asF317.0
(lp316
F0.0003176082395643802
aF5.207938998980735e-05
aF0.00012731537827530187
asF318.0
(lp317
F0.0003176082395643802
aF5.207938998980735e-05
aF0.00012731537827530187
asF319.0
(lp318
F0.0003176082395643802
aF5.207938998980735e-05
aF0.00012731537827530187
asF320.0
(lp319
F0.0003176082395643802
aF5.207938998980735e-05
aF0.00012731537827530187
asF321.0
(lp320
F0.0003176082395643802
aF5.207938998980735e-05
aF0.00012731537827530187
asF322.0
(lp321
F0.0003176082395643802
aF5.207938998980735e-05
aF0.00012731537827530187
asF323.0
(lp322
F0.0003176082395643802
aF5.207938998980735e-05
aF0.00012731537827530187
asF324.0
(lp323
F0.0003176082395643802
aF5.207938998980735e-05
aF0.00012731537827530187
asF325.0
(lp324
F0.0003176082395643802
aF5.207938998980735e-05
aF0.00012731537827530187
asF327.0
(lp325
F0.0003176082395643802
aF5.207938998980735e-05
aF0.00012731537827530187
asF328.0
(lp326
F0.0003176082395643802
aF5.207938998980735e-05
aF0.00012731537827530187
asF329.0
(lp327
F0.0003176082395643802
aF5.207938998980735e-05
aF0.00012731537827530187
asF330.0
(lp328
F0.0003176082395643802
aF5.207938998980735e-05
aF0.00012731537827530187
asF331.0
(lp329
F0.0003176082395643802
aF5.207938998980735e-05
aF0.00012731537827530187
asF332.0
(lp330
F0.0003176082395643802
aF5.207938998980735e-05
aF0.00012731537827530187
asF333.0
(lp331
F0.0003176082395643802
aF5.207938998980735e-05
aF0.00012731537827530187
asF335.0
(lp332
F0.0003176082395643802
aF5.207938998980735e-05
aF0.00012731537827530187
asF336.0
(lp333
F0.0003176082395643802
aF5.207938998980735e-05
aF0.00012731537827530187
asF337.0
(lp334
F0.0003176082395643802
aF5.207938998980735e-05
aF0.00012731537827530187
asF338.0
(lp335
F0.0003176082395643802
aF5.207938998980735e-05
aF0.00012731537827530187
asF339.0
(lp336
F0.0003176082395643802
aF5.207938998980735e-05
aF0.00012731537827530187
asF340.0
(lp337
F0.0003176082395643802
aF5.207938998980735e-05
aF0.00012731537827530187
asF341.0
(lp338
F0.0003176082395643802
aF5.207938998980735e-05
aF0.00012731537827530187
asF342.0
(lp339
F0.0003176082395643802
aF5.207938998980735e-05
aF0.00012731537827530187
asF343.0
(lp340
F0.0003176082395643802
aF5.207938998980735e-05
aF0.00012731537827530187
asF344.0
(lp341
F0.0003176082395643802
aF5.207938998980735e-05
aF0.00012731537827530187
asF345.0
(lp342
F0.0003176082395643802
aF5.207938998980735e-05
aF0.00012731537827530187
asF346.0
(lp343
F0.0003176082395643802
aF5.207938998980735e-05
aF0.00012731537827530187
asF347.0
(lp344
F0.0003176082395643802
aF5.207938998980735e-05
aF0.00012731537827530187
asF348.0
(lp345
F0.0003176082395643802
aF5.207938998980735e-05
aF0.00012731537827530187
asF349.0
(lp346
F0.0003176082395643802
aF5.207938998980735e-05
aF0.00012731537827530187
asF350.0
(lp347
F0.0003176082395643802
aF5.207938998980735e-05
aF0.00012731537827530187
asF351.0
(lp348
F0.0003176082395643802
aF5.207938998980735e-05
aF0.00012731537827530187
asF352.0
(lp349
F0.0003176082395643802
aF5.207938998980735e-05
aF0.00012731537827530187
asF353.0
(lp350
F0.0003176082395643802
aF5.207938998980735e-05
aF0.00012731537827530187
asF354.0
(lp351
F0.0003176082395643802
aF5.207938998980735e-05
aF0.00012731537827530187
asF355.0
(lp352
F0.0003176082395643802
aF5.207938998980735e-05
aF0.00012731537827530187
asF356.0
(lp353
F0.0003176082395643802
aF5.207938998980735e-05
aF0.00012731537827530187
asF357.0
(lp354
F0.0003176082395643802
aF5.207938998980735e-05
aF0.00012731537827530187
asF358.0
(lp355
F0.0003176082395643802
aF5.207938998980735e-05
aF0.00012731537827530187
asF359.0
(lp356
F0.0003176082395643802
aF5.207938998980735e-05
aF0.00012731537827530187
asF360.0
(lp357
F0.0003176082395643802
aF5.207938998980735e-05
aF0.00012731537827530187
asF361.0
(lp358
F0.0003176082395643802
aF5.207938998980735e-05
aF0.00012731537827530187
asF2410.0
(lp359
F0.0003176082395643802
aF5.207938998980735e-05
aF0.00012731537827530187
asF363.0
(lp360
F0.0003176082395643802
aF5.207938998980735e-05
aF0.00012731537827530187
asF364.0
(lp361
F0.0003176082395643802
aF5.207938998980735e-05
aF0.00012731537827530187
asF365.0
(lp362
F0.0003176082395643802
aF5.207938998980735e-05
aF0.00012731537827530187
asF366.0
(lp363
F0.0003176082395643802
aF5.207938998980735e-05
aF0.00012731537827530187
asF367.0
(lp364
F0.0003176082395643802
aF5.207938998980735e-05
aF0.00012731537827530187
asF368.0
(lp365
F0.0003176082395643802
aF5.207938998980735e-05
aF0.00012731537827530187
asF369.0
(lp366
F0.0003176082395643802
aF5.207938998980735e-05
aF0.00012731537827530187
asF370.0
(lp367
F0.0003176082395643802
aF5.207938998980735e-05
aF0.00012731537827530187
asF371.0
(lp368
F0.0003176082395643802
aF5.207938998980735e-05
aF0.00012731537827530187
asF2420.0
(lp369
F0.0003176082395643802
aF5.207938998980735e-05
aF0.00012731537827530187
asF373.0
(lp370
F0.0003176082395643802
aF5.207938998980735e-05
aF0.00012731537827530187
asF374.0
(lp371
F0.0003176082395643802
aF5.207938998980735e-05
aF0.00012731537827530187
asF2423.0
(lp372
F0.0003176082395643802
aF5.207938998980735e-05
aF0.00012731537827530187
asF376.0
(lp373
F0.0003176082395643802
aF5.207938998980735e-05
aF0.00012731537827530187
asF377.0
(lp374
F0.0003176082395643802
aF5.207938998980735e-05
aF0.00012731537827530187
asF378.0
(lp375
F0.0003176082395643802
aF5.207938998980735e-05
aF0.00012731537827530187
asF379.0
(lp376
F0.0003176082395643802
aF5.207938998980735e-05
aF0.00012731537827530187
asF380.0
(lp377
F0.0003176082395643802
aF5.207938998980735e-05
aF0.00012731537827530187
asF381.0
(lp378
F0.0003176082395643802
aF5.207938998980735e-05
aF0.00012731537827530187
asF382.0
(lp379
F0.0003176082395643802
aF5.207938998980735e-05
aF0.00012731537827530187
asF383.0
(lp380
F0.0003176082395643802
aF5.207938998980735e-05
aF0.00012731537827530187
asF384.0
(lp381
F0.0003176082395643802
aF5.207938998980735e-05
aF0.00012731537827530187
asF385.0
(lp382
F0.0003176082395643802
aF5.207938998980735e-05
aF0.00012731537827530187
asF386.0
(lp383
F0.0003176082395643802
aF5.207938998980735e-05
aF0.00012731537827530187
asF388.0
(lp384
F0.0003176082395643802
aF5.207938998980735e-05
aF0.00012731537827530187
asF389.0
(lp385
F0.0003176082395643802
aF5.207938998980735e-05
aF0.00012731537827530187
asF390.0
(lp386
F0.0003176082395643802
aF5.207938998980735e-05
aF0.00012731537827530187
asF391.0
(lp387
F0.0003176082395643802
aF5.207938998980735e-05
aF0.00012731537827530187
asF392.0
(lp388
F0.0003176082395643802
aF5.207938998980735e-05
aF0.00012731537827530187
asF394.0
(lp389
F0.0003176082395643802
aF5.207938998980735e-05
aF0.00012731537827530187
asF395.0
(lp390
F0.0003176082395643802
aF5.207938998980735e-05
aF0.00012731537827530187
asF396.0
(lp391
F0.0003176082395643802
aF5.207938998980735e-05
aF0.00012731537827530187
asF399.0
(lp392
F0.0003176082395643802
aF5.207938998980735e-05
aF0.00012731537827530187
asF401.0
(lp393
F0.0003176082395643802
aF5.207938998980735e-05
aF0.00012731537827530187
asF402.0
(lp394
F0.0003176082395643802
aF5.207938998980735e-05
aF0.00012731537827530187
asF403.0
(lp395
F0.0003176082395643802
aF5.207938998980735e-05
aF0.00012731537827530187
asF404.0
(lp396
F0.0003176082395643802
aF5.207938998980735e-05
aF0.00012731537827530187
asF405.0
(lp397
F0.0003176082395643802
aF5.207938998980735e-05
aF0.00012731537827530187
asF406.0
(lp398
F0.0003176082395643802
aF5.207938998980735e-05
aF0.00012731537827530187
asF407.0
(lp399
F0.0003176082395643802
aF5.207938998980735e-05
aF0.00012731537827530187
asF408.0
(lp400
F0.0003176082395643802
aF5.207938998980735e-05
aF0.00012731537827530187
asF409.0
(lp401
F0.0003176082395643802
aF5.207938998980735e-05
aF0.00012731537827530187
asF410.0
(lp402
F0.0003176082395643802
aF5.207938998980735e-05
aF0.00012731537827530187
asF411.0
(lp403
F0.0003176082395643802
aF5.207938998980735e-05
aF0.00012731537827530187
asF412.0
(lp404
F0.0003176082395643802
aF5.207938998980735e-05
aF0.00012731537827530187
asF413.0
(lp405
F0.0003176082395643802
aF5.207938998980735e-05
aF0.00012731537827530187
asF414.0
(lp406
F0.0003176082395643802
aF5.207938998980735e-05
aF0.00012731537827530187
asF415.0
(lp407
F0.0003176082395643802
aF5.207938998980735e-05
aF0.00012731537827530187
asF416.0
(lp408
F0.0003176082395643802
aF5.207938998980735e-05
aF0.00012731537827530187
asF417.0
(lp409
F0.0003176082395643802
aF5.207938998980735e-05
aF0.00012731537827530187
asF418.0
(lp410
F0.0003176082395643802
aF5.207938998980735e-05
aF0.00012731537827530187
asF419.0
(lp411
F0.0003176082395643802
aF5.207938998980735e-05
aF0.00012731537827530187
asF420.0
(lp412
F0.0003176082395643802
aF5.207938998980735e-05
aF0.00012731537827530187
asF421.0
(lp413
F0.0003176082395643802
aF5.207938998980735e-05
aF0.00012731537827530187
asF422.0
(lp414
F0.0003176082395643802
aF5.207938998980735e-05
aF0.00012731537827530187
asF423.0
(lp415
F0.0003176082395643802
aF5.207938998980735e-05
aF0.00012731537827530187
asF424.0
(lp416
F0.0003176082395643802
aF5.207938998980735e-05
aF0.00012731537827530187
asF425.0
(lp417
F0.0003176082395643802
aF5.207938998980735e-05
aF0.00012731537827530187
asF427.0
(lp418
F0.0003176082395643802
aF5.207938998980735e-05
aF0.00012731537827530187
asF428.0
(lp419
F0.0003176082395643802
aF5.207938998980735e-05
aF0.00012731537827530187
asF429.0
(lp420
F0.0003176082395643802
aF5.207938998980735e-05
aF0.00012731537827530187
asF430.0
(lp421
F0.0003176082395643802
aF5.207938998980735e-05
aF0.00012731537827530187
asF431.0
(lp422
F0.0003176082395643802
aF5.207938998980735e-05
aF0.00012731537827530187
asF432.0
(lp423
F0.0003176082395643802
aF5.207938998980735e-05
aF0.00012731537827530187
asF434.0
(lp424
F0.0003176082395643802
aF5.207938998980735e-05
aF0.00012731537827530187
asF435.0
(lp425
F0.0003176082395643802
aF5.207938998980735e-05
aF0.00012731537827530187
asF436.0
(lp426
F0.0003176082395643802
aF5.207938998980735e-05
aF0.00012731537827530187
asF437.0
(lp427
F0.0003176082395643802
aF5.207938998980735e-05
aF0.00012731537827530187
asF438.0
(lp428
F0.0003176082395643802
aF5.207938998980735e-05
aF0.00012731537827530187
asF439.0
(lp429
F0.0003176082395643802
aF5.207938998980735e-05
aF0.00012731537827530187
asF440.0
(lp430
F0.0003176082395643802
aF5.207938998980735e-05
aF0.00012731537827530187
asF441.0
(lp431
F0.0003176082395643802
aF5.207938998980735e-05
aF0.00012731537827530187
asF442.0
(lp432
F0.0003176082395643802
aF5.207938998980735e-05
aF0.00012731537827530187
asF443.0
(lp433
F0.0003176082395643802
aF5.207938998980735e-05
aF0.00012731537827530187
asF444.0
(lp434
F0.0003176082395643802
aF5.207938998980735e-05
aF0.00012731537827530187
asF446.0
(lp435
F0.0003176082395643802
aF5.207938998980735e-05
aF0.00012731537827530187
asF447.0
(lp436
F0.0003176082395643802
aF5.207938998980735e-05
aF0.00012731537827530187
asF448.0
(lp437
F0.0003176082395643802
aF5.207938998980735e-05
aF0.00012731537827530187
asF451.0
(lp438
F0.0003176082395643802
aF5.207938998980735e-05
aF0.00012731537827530187
asF452.0
(lp439
F0.0003176082395643802
aF5.207938998980735e-05
aF0.00012731537827530187
asF453.0
(lp440
F0.0003176082395643802
aF5.207938998980735e-05
aF0.00012731537827530187
asF454.0
(lp441
F0.0003176082395643802
aF5.207938998980735e-05
aF0.00012731537827530187
asF456.0
(lp442
F0.0003176082395643802
aF5.207938998980735e-05
aF0.00012731537827530187
asF457.0
(lp443
F0.0003176082395643802
aF5.207938998980735e-05
aF0.00012731537827530187
asF458.0
(lp444
F0.0003176082395643802
aF5.207938998980735e-05
aF0.00012731537827530187
asF459.0
(lp445
F0.0003176082395643802
aF5.207938998980735e-05
aF0.00012731537827530187
asF460.0
(lp446
F0.0003176082395643802
aF5.207938998980735e-05
aF0.00012731537827530187
asF462.0
(lp447
F0.0003176082395643802
aF5.207938998980735e-05
aF0.00012731537827530187
asF463.0
(lp448
F0.0003176082395643802
aF5.207938998980735e-05
aF0.00012731537827530187
asF464.0
(lp449
F0.0003176082395643802
aF5.207938998980735e-05
aF0.00012731537827530187
asF465.0
(lp450
F0.0003176082395643802
aF5.207938998980735e-05
aF0.00012731537827530187
asF467.0
(lp451
F0.0003176082395643802
aF5.207938998980735e-05
aF0.00012731537827530187
asF468.0
(lp452
F0.0003176082395643802
aF5.207938998980735e-05
aF0.00012731537827530187
asF469.0
(lp453
F0.0003176082395643802
aF5.207938998980735e-05
aF0.00012731537827530187
asF470.0
(lp454
F0.0003176082395643802
aF5.207938998980735e-05
aF0.00012731537827530187
asF471.0
(lp455
F0.0003176082395643802
aF5.207938998980735e-05
aF0.00012731537827530187
asF473.0
(lp456
F0.0003176082395643802
aF5.207938998980735e-05
aF0.00012731537827530187
asF474.0
(lp457
F0.0003176082395643802
aF5.207938998980735e-05
aF0.00012731537827530187
asF475.0
(lp458
F0.0003176082395643802
aF5.207938998980735e-05
aF0.00012731537827530187
asF477.0
(lp459
F0.0003176082395643802
aF5.207938998980735e-05
aF0.00012731537827530187
asF478.0
(lp460
F0.0003176082395643802
aF5.207938998980735e-05
aF0.00012731537827530187
asF479.0
(lp461
F0.0003176082395643802
aF5.207938998980735e-05
aF0.00012731537827530187
asF480.0
(lp462
F0.0003176082395643802
aF5.207938998980735e-05
aF0.00012731537827530187
asF482.0
(lp463
F0.0003176082395643802
aF5.207938998980735e-05
aF0.00012731537827530187
asF483.0
(lp464
F0.0003176082395643802
aF5.207938998980735e-05
aF0.00012731537827530187
asF484.0
(lp465
F0.0003176082395643802
aF5.207938998980735e-05
aF0.00012731537827530187
asF485.0
(lp466
F0.0003176082395643802
aF5.207938998980735e-05
aF0.00012731537827530187
asF487.0
(lp467
F0.0003176082395643802
aF5.207938998980735e-05
aF0.00012731537827530187
asF488.0
(lp468
F0.0003176082395643802
aF5.207938998980735e-05
aF0.00012731537827530187
asF489.0
(lp469
F0.0003176082395643802
aF5.207938998980735e-05
aF0.00012731537827530187
asF490.0
(lp470
F0.0003176082395643802
aF5.207938998980735e-05
aF0.00012731537827530187
asF491.0
(lp471
F0.0003176082395643802
aF5.207938998980735e-05
aF0.00012731537827530187
asF493.0
(lp472
F0.0003176082395643802
aF5.207938998980735e-05
aF0.00012731537827530187
asF494.0
(lp473
F0.0003176082395643802
aF5.207938998980735e-05
aF0.00012731537827530187
asF496.0
(lp474
F0.0003176082395643802
aF5.207938998980735e-05
aF0.00012731537827530187
asF497.0
(lp475
F0.0003176082395643802
aF5.207938998980735e-05
aF0.00012731537827530187
asF499.0
(lp476
F0.0003176082395643802
aF5.207938998980735e-05
aF0.00012731537827530187
asF500.0
(lp477
F0.0003176082395643802
aF5.207938998980735e-05
aF0.00012731537827530187
asF501.0
(lp478
F0.0003176082395643802
aF5.207938998980735e-05
aF0.00012731537827530187
asF502.0
(lp479
F0.0003176082395643802
aF5.207938998980735e-05
aF0.00012731537827530187
asF503.0
(lp480
F0.0003176082395643802
aF5.207938998980735e-05
aF0.00012731537827530187
asF504.0
(lp481
F0.0003176082395643802
aF5.207938998980735e-05
aF0.00012731537827530187
asF506.0
(lp482
F0.0003176082395643802
aF5.207938998980735e-05
aF0.00012731537827530187
asF507.0
(lp483
F0.0003176082395643802
aF5.207938998980735e-05
aF0.00012731537827530187
asF508.0
(lp484
F0.0003176082395643802
aF5.207938998980735e-05
aF0.00012731537827530187
asF510.0
(lp485
F0.0003176082395643802
aF5.207938998980735e-05
aF0.00012731537827530187
asF4607.0
(lp486
F0.0003176082395643802
aF5.207938998980735e-05
aF0.00012731537827530187
asF513.0
(lp487
F0.0003176082395643802
aF5.207938998980735e-05
aF0.00012731537827530187
asF514.0
(lp488
F0.0003176082395643802
aF5.207938998980735e-05
aF0.00012731537827530187
asF516.0
(lp489
F0.0003176082395643802
aF5.207938998980735e-05
aF0.00012731537827530187
asF517.0
(lp490
F0.0003176082395643802
aF5.207938998980735e-05
aF0.00012731537827530187
asF518.0
(lp491
F0.0003176082395643802
aF5.207938998980735e-05
aF0.00012731537827530187
asF519.0
(lp492
F0.0003176082395643802
aF5.207938998980735e-05
aF0.00012731537827530187
asF520.0
(lp493
F0.0003176082395643802
aF5.207938998980735e-05
aF0.00012731537827530187
asF521.0
(lp494
F0.0003176082395643802
aF5.207938998980735e-05
aF0.00012731537827530187
asF522.0
(lp495
F0.0003176082395643802
aF5.207938998980735e-05
aF0.00012731537827530187
asF524.0
(lp496
F0.0003176082395643802
aF5.207938998980735e-05
aF0.00012731537827530187
asF525.0
(lp497
F0.0003176082395643802
aF5.207938998980735e-05
aF0.00012731537827530187
asF527.0
(lp498
F0.0003176082395643802
aF5.207938998980735e-05
aF0.00012731537827530187
asF528.0
(lp499
F0.0003176082395643802
aF5.207938998980735e-05
aF0.00012731537827530187
asF530.0
(lp500
F0.0003176082395643802
aF5.207938998980735e-05
aF0.00012731537827530187
asF532.0
(lp501
F0.0003176082395643802
aF5.207938998980735e-05
aF0.00012731537827530187
asF533.0
(lp502
F0.0003176082395643802
aF5.207938998980735e-05
aF0.00012731537827530187
asF534.0
(lp503
F0.0003176082395643802
aF5.207938998980735e-05
aF0.00012731537827530187
asF535.0
(lp504
F0.0003176082395643802
aF5.207938998980735e-05
aF0.00012731537827530187
asF537.0
(lp505
F0.0003176082395643802
aF5.207938998980735e-05
aF0.00012731537827530187
asF538.0
(lp506
F0.0003176082395643802
aF5.207938998980735e-05
aF0.00012731537827530187
asF541.0
(lp507
F0.0003176082395643802
aF5.207938998980735e-05
aF0.00012731537827530187
asF542.0
(lp508
F0.0003176082395643802
aF5.207938998980735e-05
aF0.00012731537827530187
asF543.0
(lp509
F0.0003176082395643802
aF5.207938998980735e-05
aF0.00012731537827530187
asF544.0
(lp510
F0.0003176082395643802
aF5.207938998980735e-05
aF0.00012731537827530187
asF545.0
(lp511
F0.0003176082395643802
aF5.207938998980735e-05
aF0.00012731537827530187
asF546.0
(lp512
F0.0003176082395643802
aF5.207938998980735e-05
aF0.00012731537827530187
asF548.0
(lp513
F0.0003176082395643802
aF5.207938998980735e-05
aF0.00012731537827530187
asF549.0
(lp514
F0.0003176082395643802
aF5.207938998980735e-05
aF0.00012731537827530187
asF550.0
(lp515
F0.0003176082395643802
aF5.207938998980735e-05
aF0.00012731537827530187
asF552.0
(lp516
F0.0003176082395643802
aF5.207938998980735e-05
aF0.00012731537827530187
asF554.0
(lp517
F0.0003176082395643802
aF5.207938998980735e-05
aF0.00012731537827530187
asF555.0
(lp518
F0.0003176082395643802
aF5.207938998980735e-05
aF0.00012731537827530187
asF556.0
(lp519
F0.0003176082395643802
aF5.207938998980735e-05
aF0.00012731537827530187
asF557.0
(lp520
F0.0003176082395643802
aF5.207938998980735e-05
aF0.00012731537827530187
asF4654.0
(lp521
F0.0003176082395643802
aF5.207938998980735e-05
aF0.00012731537827530187
asF559.0
(lp522
F0.0003176082395643802
aF5.207938998980735e-05
aF0.00012731537827530187
asF560.0
(lp523
F0.0003176082395643802
aF5.207938998980735e-05
aF0.00012731537827530187
asF561.0
(lp524
F0.0003176082395643802
aF5.207938998980735e-05
aF0.00012731537827530187
asF563.0
(lp525
F0.0003176082395643802
aF5.207938998980735e-05
aF0.00012731537827530187
asF564.0
(lp526
F0.0003176082395643802
aF5.207938998980735e-05
aF0.00012731537827530187
asF568.0
(lp527
F0.0003176082395643802
aF5.207938998980735e-05
aF0.00012731537827530187
asF569.0
(lp528
F0.0003176082395643802
aF5.207938998980735e-05
aF0.00012731537827530187
asF570.0
(lp529
F0.0003176082395643802
aF5.207938998980735e-05
aF0.00012731537827530187
asF571.0
(lp530
F0.0003176082395643802
aF5.207938998980735e-05
aF0.00012731537827530187
asF572.0
(lp531
F0.0003176082395643802
aF5.207938998980735e-05
aF0.00012731537827530187
asF573.0
(lp532
F0.0003176082395643802
aF5.207938998980735e-05
aF0.00012731537827530187
asF574.0
(lp533
F0.0003176082395643802
aF5.207938998980735e-05
aF0.00012731537827530187
asF575.0
(lp534
F0.0003176082395643802
aF5.207938998980735e-05
aF0.00012731537827530187
asF576.0
(lp535
F0.0003176082395643802
aF5.207938998980735e-05
aF0.00012731537827530187
asF577.0
(lp536
F0.0003176082395643802
aF5.207938998980735e-05
aF0.00012731537827530187
asF6723.0
(lp537
F0.0003176082395643802
aF5.207938998980735e-05
aF0.00012731537827530187
asF582.0
(lp538
F0.0003176082395643802
aF5.207938998980735e-05
aF0.00012731537827530187
asF583.0
(lp539
F0.0003176082395643802
aF5.207938998980735e-05
aF0.00012731537827530187
asF584.0
(lp540
F0.0003176082395643802
aF5.207938998980735e-05
aF0.00012731537827530187
asF585.0
(lp541
F0.0003176082395643802
aF5.207938998980735e-05
aF0.00012731537827530187
asF586.0
(lp542
F0.0003176082395643802
aF5.207938998980735e-05
aF0.00012731537827530187
asF589.0
(lp543
F0.0003176082395643802
aF5.207938998980735e-05
aF0.00012731537827530187
asF590.0
(lp544
F0.0003176082395643802
aF5.207938998980735e-05
aF0.00012731537827530187
asF593.0
(lp545
F0.0003176082395643802
aF5.207938998980735e-05
aF0.00012731537827530187
asF2642.0
(lp546
F0.0003176082395643802
aF5.207938998980735e-05
aF0.00012731537827530187
asF595.0
(lp547
F0.0003176082395643802
aF5.207938998980735e-05
aF0.00012731537827530187
asF596.0
(lp548
F0.0003176082395643802
aF5.207938998980735e-05
aF0.00012731537827530187
asF599.0
(lp549
F0.0003176082395643802
aF5.207938998980735e-05
aF0.00012731537827530187
asF601.0
(lp550
F0.0003176082395643802
aF5.207938998980735e-05
aF0.00012731537827530187
asF602.0
(lp551
F0.0003176082395643802
aF5.207938998980735e-05
aF0.00012731537827530187
asF603.0
(lp552
F0.0003176082395643802
aF5.207938998980735e-05
aF0.00012731537827530187
asF605.0
(lp553
F0.0003176082395643802
aF5.207938998980735e-05
aF0.00012731537827530187
asF606.0
(lp554
F0.0003176082395643802
aF5.207938998980735e-05
aF0.00012731537827530187
asF607.0
(lp555
F0.0003176082395643802
aF5.207938998980735e-05
aF0.00012731537827530187
asF608.0
(lp556
F0.0003176082395643802
aF5.207938998980735e-05
aF0.00012731537827530187
asF609.0
(lp557
F0.0003176082395643802
aF5.207938998980735e-05
aF0.00012731537827530187
asF611.0
(lp558
F0.0003176082395643802
aF5.207938998980735e-05
aF0.00012731537827530187
asF612.0
(lp559
F0.0003176082395643802
aF5.207938998980735e-05
aF0.00012731537827530187
asF613.0
(lp560
F0.0003176082395643802
aF5.207938998980735e-05
aF0.00012731537827530187
asF614.0
(lp561
F0.0003176082395643802
aF5.207938998980735e-05
aF0.00012731537827530187
asF616.0
(lp562
F0.0003176082395643802
aF5.207938998980735e-05
aF0.00012731537827530187
asF2665.0
(lp563
F0.0003176082395643802
aF5.207938998980735e-05
aF0.00012731537827530187
asF618.0
(lp564
F0.0003176082395643802
aF5.207938998980735e-05
aF0.00012731537827530187
asF621.0
(lp565
F0.0003176082395643802
aF5.207938998980735e-05
aF0.00012731537827530187
asF622.0
(lp566
F0.0003176082395643802
aF5.207938998980735e-05
aF0.00012731537827530187
asF625.0
(lp567
F0.0003176082395643802
aF5.207938998980735e-05
aF0.00012731537827530187
asF628.0
(lp568
F0.0003176082395643802
aF5.207938998980735e-05
aF0.00012731537827530187
asF629.0
(lp569
F0.0003176082395643802
aF5.207938998980735e-05
aF0.00012731537827530187
asF631.0
(lp570
F0.0003176082395643802
aF5.207938998980735e-05
aF0.00012731537827530187
asF632.0
(lp571
F0.0003176082395643802
aF5.207938998980735e-05
aF0.00012731537827530187
asF633.0
(lp572
F0.0003176082395643802
aF5.207938998980735e-05
aF0.00012731537827530187
asF637.0
(lp573
F0.0003176082395643802
aF5.207938998980735e-05
aF0.00012731537827530187
asF2067.0
(lp574
F0.0003176082395643802
aF5.207938998980735e-05
aF0.00012731537827530187
asF641.0
(lp575
F0.0003176082395643802
aF5.207938998980735e-05
aF0.00012731537827530187
asF644.0
(lp576
F0.0003176082395643802
aF5.207938998980735e-05
aF0.00012731537827530187
asF646.0
(lp577
F0.0003176082395643802
aF5.207938998980735e-05
aF0.00012731537827530187
asF647.0
(lp578
F0.0003176082395643802
aF5.207938998980735e-05
aF0.00012731537827530187
asF651.0
(lp579
F0.0003176082395643802
aF5.207938998980735e-05
aF0.00012731537827530187
asF652.0
(lp580
F0.0003176082395643802
aF5.207938998980735e-05
aF0.00012731537827530187
asF654.0
(lp581
F0.0003176082395643802
aF5.207938998980735e-05
aF0.00012731537827530187
asF655.0
(lp582
F0.0003176082395643802
aF5.207938998980735e-05
aF0.00012731537827530187
asF656.0
(lp583
F0.0003176082395643802
aF5.207938998980735e-05
aF0.00012731537827530187
asF660.0
(lp584
F0.0003176082395643802
aF5.207938998980735e-05
aF0.00012731537827530187
asF2709.0
(lp585
F0.0003176082395643802
aF5.207938998980735e-05
aF0.00012731537827530187
asF663.0
(lp586
F0.0003176082395643802
aF5.207938998980735e-05
aF0.00012731537827530187
asF664.0
(lp587
F0.0003176082395643802
aF5.207938998980735e-05
aF0.00012731537827530187
asF665.0
(lp588
F0.0003176082395643802
aF5.207938998980735e-05
aF0.00012731537827530187
asF2714.0
(lp589
F0.0003176082395643802
aF5.207938998980735e-05
aF0.00012731537827530187
asF668.0
(lp590
F0.0003176082395643802
aF5.207938998980735e-05
aF0.00012731537827530187
asF670.0
(lp591
F0.0003176082395643802
aF5.207938998980735e-05
aF0.00012731537827530187
asF671.0
(lp592
F0.0003176082395643802
aF5.207938998980735e-05
aF0.00012731537827530187
asF672.0
(lp593
F0.0003176082395643802
aF5.207938998980735e-05
aF0.00012731537827530187
asF673.0
(lp594
F0.0003176082395643802
aF5.207938998980735e-05
aF0.00012731537827530187
asF675.0
(lp595
F0.0003176082395643802
aF5.207938998980735e-05
aF0.00012731537827530187
asF677.0
(lp596
F0.0003176082395643802
aF5.207938998980735e-05
aF0.00012731537827530187
asF678.0
(lp597
F0.0003176082395643802
aF5.207938998980735e-05
aF0.00012731537827530187
asF679.0
(lp598
F0.0003176082395643802
aF5.207938998980735e-05
aF0.00012731537827530187
asF681.0
(lp599
F0.0003176082395643802
aF5.207938998980735e-05
aF0.00012731537827530187
asF682.0
(lp600
F0.0003176082395643802
aF5.207938998980735e-05
aF0.00012731537827530187
asF684.0
(lp601
F0.0003176082395643802
aF5.207938998980735e-05
aF0.00012731537827530187
asF685.0
(lp602
F0.0003176082395643802
aF5.207938998980735e-05
aF0.00012731537827530187
asF686.0
(lp603
F0.0003176082395643802
aF5.207938998980735e-05
aF0.00012731537827530187
asF687.0
(lp604
F0.0003176082395643802
aF5.207938998980735e-05
aF0.00012731537827530187
asF693.0
(lp605
F0.0003176082395643802
aF5.207938998980735e-05
aF0.00012731537827530187
asF694.0
(lp606
F0.0003176082395643802
aF5.207938998980735e-05
aF0.00012731537827530187
asF3529.0
(lp607
F0.0003176082395643802
aF5.207938998980735e-05
aF0.00012731537827530187
asF700.0
(lp608
F0.0003176082395643802
aF5.207938998980735e-05
aF0.00012731537827530187
asF701.0
(lp609
F0.0003176082395643802
aF5.207938998980735e-05
aF0.00012731537827530187
asF6846.0
(lp610
F0.0003176082395643802
aF5.207938998980735e-05
aF0.00012731537827530187
asF706.0
(lp611
F0.0003176082395643802
aF5.207938998980735e-05
aF0.00012731537827530187
asF707.0
(lp612
F0.0003176082395643802
aF5.207938998980735e-05
aF0.00012731537827530187
asF709.0
(lp613
F0.0003176082395643802
aF5.207938998980735e-05
aF0.00012731537827530187
asF712.0
(lp614
F0.0003176082395643802
aF5.207938998980735e-05
aF0.00012731537827530187
asF713.0
(lp615
F0.0003176082395643802
aF5.207938998980735e-05
aF0.00012731537827530187
asF716.0
(lp616
F0.0003176082395643802
aF5.207938998980735e-05
aF0.00012731537827530187
asF717.0
(lp617
F0.0003176082395643802
aF5.207938998980735e-05
aF0.00012731537827530187
asF718.0
(lp618
F0.0003176082395643802
aF5.207938998980735e-05
aF0.00012731537827530187
asF719.0
(lp619
F0.0003176082395643802
aF5.207938998980735e-05
aF0.00012731537827530187
asF720.0
(lp620
F0.0003176082395643802
aF5.207938998980735e-05
aF0.00012731537827530187
asF725.0
(lp621
F0.0003176082395643802
aF5.207938998980735e-05
aF0.00012731537827530187
asF726.0
(lp622
F0.0003176082395643802
aF5.207938998980735e-05
aF0.00012731537827530187
asF729.0
(lp623
F0.0003176082395643802
aF5.207938998980735e-05
aF0.00012731537827530187
asF733.0
(lp624
F0.0003176082395643802
aF5.207938998980735e-05
aF0.00012731537827530187
asF734.0
(lp625
F0.0003176082395643802
aF5.207938998980735e-05
aF0.00012731537827530187
asF736.0
(lp626
F0.0003176082395643802
aF5.207938998980735e-05
aF0.00012731537827530187
asF737.0
(lp627
F0.0003176082395643802
aF5.207938998980735e-05
aF0.00012731537827530187
asF740.0
(lp628
F0.0003176082395643802
aF5.207938998980735e-05
aF0.00012731537827530187
asF746.0
(lp629
F0.0003176082395643802
aF5.207938998980735e-05
aF0.00012731537827530187
asF749.0
(lp630
F0.0003176082395643802
aF5.207938998980735e-05
aF0.00012731537827530187
asF750.0
(lp631
F0.0003176082395643802
aF5.207938998980735e-05
aF0.00012731537827530187
asF753.0
(lp632
F0.0003176082395643802
aF5.207938998980735e-05
aF0.00012731537827530187
asF754.0
(lp633
F0.0003176082395643802
aF5.207938998980735e-05
aF0.00012731537827530187
asF757.0
(lp634
F0.0003176082395643802
aF5.207938998980735e-05
aF0.00012731537827530187
asF758.0
(lp635
F0.0003176082395643802
aF5.207938998980735e-05
aF0.00012731537827530187
asF759.0
(lp636
F0.0003176082395643802
aF5.207938998980735e-05
aF0.00012731537827530187
asF761.0
(lp637
F0.0003176082395643802
aF5.207938998980735e-05
aF0.00012731537827530187
asF762.0
(lp638
F0.0003176082395643802
aF5.207938998980735e-05
aF0.00012731537827530187
asF763.0
(lp639
F0.0003176082395643802
aF5.207938998980735e-05
aF0.00012731537827530187
asF766.0
(lp640
F0.0003176082395643802
aF5.207938998980735e-05
aF0.00012731537827530187
asF767.0
(lp641
F0.0003176082395643802
aF5.207938998980735e-05
aF0.00012731537827530187
asF773.0
(lp642
F0.0003176082395643802
aF5.207938998980735e-05
aF0.00012731537827530187
asF776.0
(lp643
F0.0003176082395643802
aF5.207938998980735e-05
aF0.00012731537827530187
asF777.0
(lp644
F0.0003176082395643802
aF5.207938998980735e-05
aF0.00012731537827530187
asF780.0
(lp645
F0.0003176082395643802
aF5.207938998980735e-05
aF0.00012731537827530187
asF781.0
(lp646
F0.0003176082395643802
aF5.207938998980735e-05
aF0.00012731537827530187
asF785.0
(lp647
F0.0003176082395643802
aF5.207938998980735e-05
aF0.00012731537827530187
asF786.0
(lp648
F0.0003176082395643802
aF5.207938998980735e-05
aF0.00012731537827530187
asF787.0
(lp649
F0.0003176082395643802
aF5.207938998980735e-05
aF0.00012731537827530187
asF788.0
(lp650
F0.0003176082395643802
aF5.207938998980735e-05
aF0.00012731537827530187
asF790.0
(lp651
F0.0003176082395643802
aF5.207938998980735e-05
aF0.00012731537827530187
asF791.0
(lp652
F0.0003176082395643802
aF5.207938998980735e-05
aF0.00012731537827530187
asF2180.0
(lp653
F0.0003176082395643802
aF5.207938998980735e-05
aF0.00012731537827530187
asF802.0
(lp654
F0.0003176082395643802
aF5.207938998980735e-05
aF0.00012731537827530187
asF810.0
(lp655
F0.0003176082395643802
aF5.207938998980735e-05
aF0.00012731537827530187
asF812.0
(lp656
F0.0003176082395643802
aF5.207938998980735e-05
aF0.00012731537827530187
asF813.0
(lp657
F0.0003176082395643802
aF5.207938998980735e-05
aF0.00012731537827530187
asF815.0
(lp658
F0.0003176082395643802
aF5.207938998980735e-05
aF0.00012731537827530187
asF817.0
(lp659
F0.0003176082395643802
aF5.207938998980735e-05
aF0.00012731537827530187
asF819.0
(lp660
F0.0003176082395643802
aF5.207938998980735e-05
aF0.00012731537827530187
asF826.0
(lp661
F0.0003176082395643802
aF5.207938998980735e-05
aF0.00012731537827530187
asF830.0
(lp662
F0.0003176082395643802
aF5.207938998980735e-05
aF0.00012731537827530187
asF835.0
(lp663
F0.0003176082395643802
aF5.207938998980735e-05
aF0.00012731537827530187
asF836.0
(lp664
F0.0003176082395643802
aF5.207938998980735e-05
aF0.00012731537827530187
asF840.0
(lp665
F0.0003176082395643802
aF5.207938998980735e-05
aF0.00012731537827530187
asF844.0
(lp666
F0.0003176082395643802
aF5.207938998980735e-05
aF0.00012731537827530187
asF847.0
(lp667
F0.0003176082395643802
aF5.207938998980735e-05
aF0.00012731537827530187
asF850.0
(lp668
F0.0003176082395643802
aF5.207938998980735e-05
aF0.00012731537827530187
asF851.0
(lp669
F0.0003176082395643802
aF5.207938998980735e-05
aF0.00012731537827530187
asF854.0
(lp670
F0.0003176082395643802
aF5.207938998980735e-05
aF0.00012731537827530187
asF856.0
(lp671
F0.0003176082395643802
aF5.207938998980735e-05
aF0.00012731537827530187
asF857.0
(lp672
F0.0003176082395643802
aF5.207938998980735e-05
aF0.00012731537827530187
asF866.0
(lp673
F0.0003176082395643802
aF5.207938998980735e-05
aF0.00012731537827530187
asF867.0
(lp674
F0.0003176082395643802
aF5.207938998980735e-05
aF0.00012731537827530187
asF868.0
(lp675
F0.0003176082395643802
aF5.207938998980735e-05
aF0.00012731537827530187
asF869.0
(lp676
F0.0003176082395643802
aF5.207938998980735e-05
aF0.00012731537827530187
asF870.0
(lp677
F0.0003176082395643802
aF5.207938998980735e-05
aF0.00012731537827530187
asF872.0
(lp678
F0.0003176082395643802
aF5.207938998980735e-05
aF0.00012731537827530187
asF873.0
(lp679
F0.0003176082395643802
aF5.207938998980735e-05
aF0.00012731537827530187
asF874.0
(lp680
F0.0003176082395643802
aF5.207938998980735e-05
aF0.00012731537827530187
asF879.0
(lp681
F0.0003176082395643802
aF5.207938998980735e-05
aF0.00012731537827530187
asF881.0
(lp682
F0.0003176082395643802
aF5.207938998980735e-05
aF0.00012731537827530187
asF882.0
(lp683
F0.0003176082395643802
aF5.207938998980735e-05
aF0.00012731537827530187
asF883.0
(lp684
F0.0003176082395643802
aF5.207938998980735e-05
aF0.00012731537827530187
asF884.0
(lp685
F0.0003176082395643802
aF5.207938998980735e-05
aF0.00012731537827530187
asF886.0
(lp686
F0.0003176082395643802
aF5.207938998980735e-05
aF0.00012731537827530187
asF888.0
(lp687
F0.0003176082395643802
aF5.207938998980735e-05
aF0.00012731537827530187
asF889.0
(lp688
F0.0003176082395643802
aF5.207938998980735e-05
aF0.00012731537827530187
asF891.0
(lp689
F0.0003176082395643802
aF5.207938998980735e-05
aF0.00012731537827530187
asF892.0
(lp690
F0.0003176082395643802
aF5.207938998980735e-05
aF0.00012731537827530187
asF893.0
(lp691
F0.0003176082395643802
aF5.207938998980735e-05
aF0.00012731537827530187
asF896.0
(lp692
F0.0003176082395643802
aF5.207938998980735e-05
aF0.00012731537827530187
asF897.0
(lp693
F0.0003176082395643802
aF5.207938998980735e-05
aF0.00012731537827530187
asF900.0
(lp694
F0.0003176082395643802
aF5.207938998980735e-05
aF0.00012731537827530187
asF903.0
(lp695
F0.0003176082395643802
aF5.207938998980735e-05
aF0.00012731537827530187
asF904.0
(lp696
F0.0003176082395643802
aF5.207938998980735e-05
aF0.00012731537827530187
asF907.0
(lp697
F0.0003176082395643802
aF5.207938998980735e-05
aF0.00012731537827530187
asF914.0
(lp698
F0.0003176082395643802
aF5.207938998980735e-05
aF0.00012731537827530187
asF922.0
(lp699
F0.0003176082395643802
aF5.207938998980735e-05
aF0.00012731537827530187
asF925.0
(lp700
F0.0003176082395643802
aF5.207938998980735e-05
aF0.00012731537827530187
asF929.0
(lp701
F0.0003176082395643802
aF5.207938998980735e-05
aF0.00012731537827530187
asF935.0
(lp702
F0.0003176082395643802
aF5.207938998980735e-05
aF0.00012731537827530187
asF372.0
(lp703
F0.0003176082395643802
aF5.207938998980735e-05
aF0.00012731537827530187
asF944.0
(lp704
F0.0003176082395643802
aF5.207938998980735e-05
aF0.00012731537827530187
asF946.0
(lp705
F0.0003176082395643802
aF5.207938998980735e-05
aF0.00012731537827530187
asF951.0
(lp706
F0.0003176082395643802
aF5.207938998980735e-05
aF0.00012731537827530187
asF952.0
(lp707
F0.0003176082395643802
aF5.207938998980735e-05
aF0.00012731537827530187
asF954.0
(lp708
F0.0003176082395643802
aF5.207938998980735e-05
aF0.00012731537827530187
asF963.0
(lp709
F0.0003176082395643802
aF5.207938998980735e-05
aF0.00012731537827530187
asF970.0
(lp710
F0.0003176082395643802
aF5.207938998980735e-05
aF0.00012731537827530187
asF972.0
(lp711
F0.0003176082395643802
aF5.207938998980735e-05
aF0.00012731537827530187
asF973.0
(lp712
F0.0003176082395643802
aF5.207938998980735e-05
aF0.00012731537827530187
asF978.0
(lp713
F0.0003176082395643802
aF5.207938998980735e-05
aF0.00012731537827530187
asF980.0
(lp714
F0.0003176082395643802
aF5.207938998980735e-05
aF0.00012731537827530187
asF982.0
(lp715
F0.0003176082395643802
aF5.207938998980735e-05
aF0.00012731537827530187
asF984.0
(lp716
F0.0003176082395643802
aF5.207938998980735e-05
aF0.00012731537827530187
asF986.0
(lp717
F0.0003176082395643802
aF5.207938998980735e-05
aF0.00012731537827530187
asF3035.0
(lp718
F0.0003176082395643802
aF5.207938998980735e-05
aF0.00012731537827530187
asF702.0
(lp719
F0.0003176082395643802
aF5.207938998980735e-05
aF0.00012731537827530187
asF991.0
(lp720
F0.0003176082395643802
aF5.207938998980735e-05
aF0.00012731537827530187
asF993.0
(lp721
F0.0003176082395643802
aF5.207938998980735e-05
aF0.00012731537827530187
asF995.0
(lp722
F0.0003176082395643802
aF5.207938998980735e-05
aF0.00012731537827530187
asF998.0
(lp723
F0.0003176082395643802
aF5.207938998980735e-05
aF0.00012731537827530187
asF1000.0
(lp724
F0.0003176082395643802
aF5.207938998980735e-05
aF0.00012731537827530187
asF1003.0
(lp725
F0.0003176082395643802
aF5.207938998980735e-05
aF0.00012731537827530187
asF1015.0
(lp726
F0.0003176082395643802
aF5.207938998980735e-05
aF0.00012731537827530187
asF1017.0
(lp727
F0.0003176082395643802
aF5.207938998980735e-05
aF0.00012731537827530187
asF511.0
(lp728
F0.0003176082395643802
aF5.207938998980735e-05
aF0.00012731537827530187
asF1022.0
(lp729
F0.0003176082395643802
aF5.207938998980735e-05
aF0.00012731537827530187
asF3071.0
(lp730
F0.0003176082395643802
aF5.207938998980735e-05
aF0.00012731537827530187
asF375.0
(lp731
F0.0003176082395643802
aF5.207938998980735e-05
aF0.00012731537827530187
asF1029.0
(lp732
F0.0003176082395643802
aF5.207938998980735e-05
aF0.00012731537827530187
asF1033.0
(lp733
F0.0003176082395643802
aF5.207938998980735e-05
aF0.00012731537827530187
asF1034.0
(lp734
F0.0003176082395643802
aF5.207938998980735e-05
aF0.00012731537827530187
asF1037.0
(lp735
F0.0003176082395643802
aF5.207938998980735e-05
aF0.00012731537827530187
asF3088.0
(lp736
F0.0003176082395643802
aF5.207938998980735e-05
aF0.00012731537827530187
asF1049.0
(lp737
F0.0003176082395643802
aF5.207938998980735e-05
aF0.00012731537827530187
asF1050.0
(lp738
F0.0003176082395643802
aF5.207938998980735e-05
aF0.00012731537827530187
asF1051.0
(lp739
F0.0003176082395643802
aF5.207938998980735e-05
aF0.00012731537827530187
asF1053.0
(lp740
F0.0003176082395643802
aF5.207938998980735e-05
aF0.00012731537827530187
asF1067.0
(lp741
F0.0003176082395643802
aF5.207938998980735e-05
aF0.00012731537827530187
asF1068.0
(lp742
F0.0003176082395643802
aF5.207938998980735e-05
aF0.00012731537827530187
asF1082.0
(lp743
F0.0003176082395643802
aF5.207938998980735e-05
aF0.00012731537827530187
asF1083.0
(lp744
F0.0003176082395643802
aF5.207938998980735e-05
aF0.00012731537827530187
asF1090.0
(lp745
F0.0003176082395643802
aF5.207938998980735e-05
aF0.00012731537827530187
asF1092.0
(lp746
F0.0003176082395643802
aF5.207938998980735e-05
aF0.00012731537827530187
asF1093.0
(lp747
F0.0003176082395643802
aF5.207938998980735e-05
aF0.00012731537827530187
asF1096.0
(lp748
F0.0003176082395643802
aF5.207938998980735e-05
aF0.00012731537827530187
asF1101.0
(lp749
F0.0003176082395643802
aF5.207938998980735e-05
aF0.00012731537827530187
asF1102.0
(lp750
F0.0003176082395643802
aF5.207938998980735e-05
aF0.00012731537827530187
asF1107.0
(lp751
F0.0003176082395643802
aF5.207938998980735e-05
aF0.00012731537827530187
asF1108.0
(lp752
F0.0003176082395643802
aF5.207938998980735e-05
aF0.00012731537827530187
asF1109.0
(lp753
F0.0003176082395643802
aF5.207938998980735e-05
aF0.00012731537827530187
asF1112.0
(lp754
F0.0003176082395643802
aF5.207938998980735e-05
aF0.00012731537827530187
asF1114.0
(lp755
F0.0003176082395643802
aF5.207938998980735e-05
aF0.00012731537827530187
asF1117.0
(lp756
F0.0003176082395643802
aF5.207938998980735e-05
aF0.00012731537827530187
asF1123.0
(lp757
F0.0003176082395643802
aF5.207938998980735e-05
aF0.00012731537827530187
asF1126.0
(lp758
F0.0003176082395643802
aF5.207938998980735e-05
aF0.00012731537827530187
asF1132.0
(lp759
F0.0003176082395643802
aF5.207938998980735e-05
aF0.00012731537827530187
asF1134.0
(lp760
F0.0003176082395643802
aF5.207938998980735e-05
aF0.00012731537827530187
asF1137.0
(lp761
F0.0003176082395643802
aF5.207938998980735e-05
aF0.00012731537827530187
asF362.0
(lp762
F0.0003176082395643802
aF5.207938998980735e-05
aF0.00012731537827530187
asF1140.0
(lp763
F0.0003176082395643802
aF5.207938998980735e-05
aF0.00012731537827530187
asF1146.0
(lp764
F0.0003176082395643802
aF5.207938998980735e-05
aF0.00012731537827530187
asF1151.0
(lp765
F0.0003176082395643802
aF5.207938998980735e-05
aF0.00012731537827530187
asF1152.0
(lp766
F0.0003176082395643802
aF5.207938998980735e-05
aF0.00012731537827530187
asF1154.0
(lp767
F0.0003176082395643802
aF5.207938998980735e-05
aF0.00012731537827530187
asF1162.0
(lp768
F0.0003176082395643802
aF5.207938998980735e-05
aF0.00012731537827530187
asF1165.0
(lp769
F0.0003176082395643802
aF5.207938998980735e-05
aF0.00012731537827530187
asF1167.0
(lp770
F0.0003176082395643802
aF5.207938998980735e-05
aF0.00012731537827530187
asF2243.0
(lp771
F0.0003176082395643802
aF5.207938998980735e-05
aF0.00012731537827530187
asF1174.0
(lp772
F0.0003176082395643802
aF5.207938998980735e-05
aF0.00012731537827530187
asF1176.0
(lp773
F0.0003176082395643802
aF5.207938998980735e-05
aF0.00012731537827530187
asF3232.0
(lp774
F0.0003176082395643802
aF5.207938998980735e-05
aF0.00012731537827530187
asF1187.0
(lp775
F0.0003176082395643802
aF5.207938998980735e-05
aF0.00012731537827530187
asF3237.0
(lp776
F0.0003176082395643802
aF5.207938998980735e-05
aF0.00012731537827530187
asF1192.0
(lp777
F0.0003176082395643802
aF5.207938998980735e-05
aF0.00012731537827530187
asF1194.0
(lp778
F0.0003176082395643802
aF5.207938998980735e-05
aF0.00012731537827530187
asF1196.0
(lp779
F0.0003176082395643802
aF5.207938998980735e-05
aF0.00012731537827530187
asF1199.0
(lp780
F0.0003176082395643802
aF5.207938998980735e-05
aF0.00012731537827530187
asF1201.0
(lp781
F0.0003176082395643802
aF5.207938998980735e-05
aF0.00012731537827530187
asF1202.0
(lp782
F0.0003176082395643802
aF5.207938998980735e-05
aF0.00012731537827530187
asF1205.0
(lp783
F0.0003176082395643802
aF5.207938998980735e-05
aF0.00012731537827530187
asF1213.0
(lp784
F0.0003176082395643802
aF5.207938998980735e-05
aF0.00012731537827530187
asF1217.0
(lp785
F0.0003176082395643802
aF5.207938998980735e-05
aF0.00012731537827530187
asF1220.0
(lp786
F0.0003176082395643802
aF5.207938998980735e-05
aF0.00012731537827530187
asF3286.0
(lp787
F0.0003176082395643802
aF5.207938998980735e-05
aF0.00012731537827530187
asF1243.0
(lp788
F0.0003176082395643802
aF5.207938998980735e-05
aF0.00012731537827530187
asF1246.0
(lp789
F0.0003176082395643802
aF5.207938998980735e-05
aF0.00012731537827530187
asF1248.0
(lp790
F0.0003176082395643802
aF5.207938998980735e-05
aF0.00012731537827530187
asF2256.0
(lp791
F0.0003176082395643802
aF5.207938998980735e-05
aF0.00012731537827530187
asF1260.0
(lp792
F0.0003176082395643802
aF5.207938998980735e-05
aF0.00012731537827530187
asF1262.0
(lp793
F0.0003176082395643802
aF5.207938998980735e-05
aF0.00012731537827530187
asF1263.0
(lp794
F0.0003176082395643802
aF5.207938998980735e-05
aF0.00012731537827530187
asF1272.0
(lp795
F0.0003176082395643802
aF5.207938998980735e-05
aF0.00012731537827530187
asF1276.0
(lp796
F0.0003176082395643802
aF5.207938998980735e-05
aF0.00012731537827530187
asF1277.0
(lp797
F0.0003176082395643802
aF5.207938998980735e-05
aF0.00012731537827530187
asF2261.0
(lp798
F0.0003176082395643802
aF5.207938998980735e-05
aF0.00012731537827530187
asF1280.0
(lp799
F0.0003176082395643802
aF5.207938998980735e-05
aF0.00012731537827530187
asF1281.0
(lp800
F0.0003176082395643802
aF5.207938998980735e-05
aF0.00012731537827530187
asF1286.0
(lp801
F0.0003176082395643802
aF5.207938998980735e-05
aF0.00012731537827530187
asF1290.0
(lp802
F0.0003176082395643802
aF5.207938998980735e-05
aF0.00012731537827530187
asF1292.0
(lp803
F0.0003176082395643802
aF5.207938998980735e-05
aF0.00012731537827530187
asF1293.0
(lp804
F0.0003176082395643802
aF5.207938998980735e-05
aF0.00012731537827530187
asF1301.0
(lp805
F0.0003176082395643802
aF5.207938998980735e-05
aF0.00012731537827530187
asF1304.0
(lp806
F0.0003176082395643802
aF5.207938998980735e-05
aF0.00012731537827530187
asF1305.0
(lp807
F0.0003176082395643802
aF5.207938998980735e-05
aF0.00012731537827530187
asF2266.0
(lp808
F0.0003176082395643802
aF5.207938998980735e-05
aF0.00012731537827530187
asF1316.0
(lp809
F0.0003176082395643802
aF5.207938998980735e-05
aF0.00012731537827530187
asF1327.0
(lp810
F0.0003176082395643802
aF5.207938998980735e-05
aF0.00012731537827530187
asF1331.0
(lp811
F0.0003176082395643802
aF5.207938998980735e-05
aF0.00012731537827530187
asF1337.0
(lp812
F0.0003176082395643802
aF5.207938998980735e-05
aF0.00012731537827530187
asF1338.0
(lp813
F0.0003176082395643802
aF5.207938998980735e-05
aF0.00012731537827530187
asF1344.0
(lp814
F0.0003176082395643802
aF5.207938998980735e-05
aF0.00012731537827530187
asF1249.0
(lp815
F0.0003176082395643802
aF5.207938998980735e-05
aF0.00012731537827530187
asF1354.0
(lp816
F0.0003176082395643802
aF5.207938998980735e-05
aF0.00012731537827530187
asF1364.0
(lp817
F0.0003176082395643802
aF5.207938998980735e-05
aF0.00012731537827530187
asF1369.0
(lp818
F0.0003176082395643802
aF5.207938998980735e-05
aF0.00012731537827530187
asF7517.0
(lp819
F0.0003176082395643802
aF5.207938998980735e-05
aF0.00012731537827530187
asF1378.0
(lp820
F0.0003176082395643802
aF5.207938998980735e-05
aF0.00012731537827530187
asF1379.0
(lp821
F0.0003176082395643802
aF5.207938998980735e-05
aF0.00012731537827530187
asF1383.0
(lp822
F0.0003176082395643802
aF5.207938998980735e-05
aF0.00012731537827530187
asF1391.0
(lp823
F0.0003176082395643802
aF5.207938998980735e-05
aF0.00012731537827530187
asF1395.0
(lp824
F0.0003176082395643802
aF5.207938998980735e-05
aF0.00012731537827530187
asF1397.0
(lp825
F0.0003176082395643802
aF5.207938998980735e-05
aF0.00012731537827530187
asF2281.0
(lp826
F0.0003176082395643802
aF5.207938998980735e-05
aF0.00012731537827530187
asF1401.0
(lp827
F0.0003176082395643802
aF5.207938998980735e-05
aF0.00012731537827530187
asF1410.0
(lp828
F0.0003176082395643802
aF5.207938998980735e-05
aF0.00012731537827530187
asF1412.0
(lp829
F0.0003176082395643802
aF5.207938998980735e-05
aF0.00012731537827530187
asF1414.0
(lp830
F0.0003176082395643802
aF5.207938998980735e-05
aF0.00012731537827530187
asF1421.0
(lp831
F0.0003176082395643802
aF5.207938998980735e-05
aF0.00012731537827530187
asF2434.0
(lp832
F0.0003176082395643802
aF5.207938998980735e-05
aF0.00012731537827530187
asF2137.0
(lp833
F0.0003176082395643802
aF5.207938998980735e-05
aF0.00012731537827530187
asF579.0
(lp834
F0.0003176082395643802
aF5.207938998980735e-05
aF0.00012731537827530187
asF1429.0
(lp835
F0.0003176082395643802
aF5.207938998980735e-05
aF0.00012731537827530187
asF1444.0
(lp836
F0.0003176082395643802
aF5.207938998980735e-05
aF0.00012731537827530187
asF2162.0
(lp837
F0.0003176082395643802
aF5.207938998980735e-05
aF0.00012731537827530187
asF1448.0
(lp838
F0.0003176082395643802
aF5.207938998980735e-05
aF0.00012731537827530187
asF1451.0
(lp839
F0.0003176082395643802
aF5.207938998980735e-05
aF0.00012731537827530187
asF1458.0
(lp840
F0.0003176082395643802
aF5.207938998980735e-05
aF0.00012731537827530187
asF1468.0
(lp841
F0.0003176082395643802
aF5.207938998980735e-05
aF0.00012731537827530187
asF2634.0
(lp842
F0.0003176082395643802
aF5.207938998980735e-05
aF0.00012731537827530187
asF3520.0
(lp843
F0.0003176082395643802
aF5.207938998980735e-05
aF0.00012731537827530187
asF1480.0
(lp844
F0.0003176082395643802
aF5.207938998980735e-05
aF0.00012731537827530187
asF2095.0
(lp845
F0.0003176082395643802
aF5.207938998980735e-05
aF0.00012731537827530187
asF1485.0
(lp846
F0.0003176082395643802
aF5.207938998980735e-05
aF0.00012731537827530187
asF1499.0
(lp847
F0.0003176082395643802
aF5.207938998980735e-05
aF0.00012731537827530187
asF1505.0
(lp848
F0.0003176082395643802
aF5.207938998980735e-05
aF0.00012731537827530187
asF594.0
(lp849
F0.0003176082395643802
aF5.207938998980735e-05
aF0.00012731537827530187
asF1522.0
(lp850
F0.0003176082395643802
aF5.207938998980735e-05
aF0.00012731537827530187
asF1523.0
(lp851
F0.0003176082395643802
aF5.207938998980735e-05
aF0.00012731537827530187
asF1570.0
(lp852
F0.0003176082395643802
aF5.207938998980735e-05
aF0.00012731537827530187
asF1584.0
(lp853
F0.0003176082395643802
aF5.207938998980735e-05
aF0.00012731537827530187
asF793.0
(lp854
F0.0003176082395643802
aF5.207938998980735e-05
aF0.00012731537827530187
asF1592.0
(lp855
F0.0003176082395643802
aF5.207938998980735e-05
aF0.00012731537827530187
asF1596.0
(lp856
F0.0003176082395643802
aF5.207938998980735e-05
aF0.00012731537827530187
asF2657.0
(lp857
F0.0003176082395643802
aF5.207938998980735e-05
aF0.00012731537827530187
asF1611.0
(lp858
F0.0003176082395643802
aF5.207938998980735e-05
aF0.00012731537827530187
asF1615.0
(lp859
F0.0003176082395643802
aF5.207938998980735e-05
aF0.00012731537827530187
asF2319.0
(lp860
F0.0003176082395643802
aF5.207938998980735e-05
aF0.00012731537827530187
asF2101.0
(lp861
F0.0003176082395643802
aF5.207938998980735e-05
aF0.00012731537827530187
asF3711.0
(lp862
F0.0003176082395643802
aF5.207938998980735e-05
aF0.00012731537827530187
asF1664.0
(lp863
F0.0003176082395643802
aF5.207938998980735e-05
aF0.00012731537827530187
asF1668.0
(lp864
F0.0003176082395643802
aF5.207938998980735e-05
aF0.00012731537827530187
asF1675.0
(lp865
F0.0003176082395643802
aF5.207938998980735e-05
aF0.00012731537827530187
asF280.0
(lp866
F0.0003176082395643802
aF5.207938998980735e-05
aF0.00012731537827530187
asF1683.0
(lp867
F0.0003176082395643802
aF5.207938998980735e-05
aF0.00012731537827530187
asF1693.0
(lp868
F0.0003176082395643802
aF5.207938998980735e-05
aF0.00012731537827530187
asF1716.0
(lp869
F0.0003176082395643802
aF5.207938998980735e-05
aF0.00012731537827530187
asF1731.0
(lp870
F0.0003176082395643802
aF5.207938998980735e-05
aF0.00012731537827530187
asF1734.0
(lp871
F0.0003176082395643802
aF5.207938998980735e-05
aF0.00012731537827530187
asF1738.0
(lp872
F0.0003176082395643802
aF5.207938998980735e-05
aF0.00012731537827530187
asF1743.0
(lp873
F0.0003176082395643802
aF5.207938998980735e-05
aF0.00012731537827530187
asF2681.0
(lp874
F0.0003176082395643802
aF5.207938998980735e-05
aF0.00012731537827530187
asF1761.0
(lp875
F0.0003176082395643802
aF5.207938998980735e-05
aF0.00012731537827530187
asF1766.0
(lp876
F0.0003176082395643802
aF5.207938998980735e-05
aF0.00012731537827530187
asF1773.0
(lp877
F0.0003176082395643802
aF5.207938998980735e-05
aF0.00012731537827530187
asF3824.0
(lp878
F0.0003176082395643802
aF5.207938998980735e-05
aF0.00012731537827530187
asF1817.0
(lp879
F0.0003176082395643802
aF5.207938998980735e-05
aF0.00012731537827530187
asF1825.0
(lp880
F0.0003176082395643802
aF5.207938998980735e-05
aF0.00012731537827530187
asF1848.0
(lp881
F0.0003176082395643802
aF5.207938998980735e-05
aF0.00012731537827530187
asF1856.0
(lp882
F0.0003176082395643802
aF5.207938998980735e-05
aF0.00012731537827530187
asF1868.0
(lp883
F0.0003176082395643802
aF5.207938998980735e-05
aF0.00012731537827530187
asF10068.0
(lp884
F0.0003176082395643802
aF5.207938998980735e-05
aF0.00012731537827530187
asF1878.0
(lp885
F0.0003176082395643802
aF5.207938998980735e-05
aF0.00012731537827530187
asF1879.0
(lp886
F0.0003176082395643802
aF5.207938998980735e-05
aF0.00012731537827530187
asF558.0
(lp887
F0.0003176082395643802
aF5.207938998980735e-05
aF0.00012731537827530187
asF1964.0
(lp888
F0.0003176082395643802
aF5.207938998980735e-05
aF0.00012731537827530187
asF4019.0
(lp889
F0.0003176082395643802
aF5.207938998980735e-05
aF0.00012731537827530187
asF4028.0
(lp890
F0.0003176082395643802
aF5.207938998980735e-05
aF0.00012731537827530187
asF2021.0
(lp891
F0.0003176082395643802
aF5.207938998980735e-05
aF0.00012731537827530187
asF6614.0
(lp892
F0.0003176082395643802
aF5.207938998980735e-05
aF0.00012731537827530187
asF2047.0
(lp893
F0.0003176082395643802
aF5.207938998980735e-05
aF0.00012731537827530187
as.