(dp0
I1
(lp1
F0.00031761156106082256
aF5.209961446285297e-05
aF0.00012732365673542143
asI2
(lp2
F0.00031761156106082256
aF5.209961446285297e-05
aF0.00012732365673542143
asI3
(lp3
F0.00031761156106082256
aF5.209961446285297e-05
aF0.00012732365673542143
asI4
(lp4
F0.00031761156106082256
aF5.209961446285297e-05
aF0.00012732365673542143
asI5
(lp5
F0.00031761156106082256
aF5.209961446285297e-05
aF0.00012732365673542143
asI6
(lp6
F0.00031761156106082256
aF5.209961446285297e-05
aF0.00012732365673542143
asI7
(lp7
F0.00031761156106082256
aF5.209961446285297e-05
aF0.00012732365673542143
asI8
(lp8
F0.00031761156106082256
aF5.209961446285297e-05
aF0.00012732365673542143
asI9
(lp9
F0.00031761156106082256
aF5.209961446285297e-05
aF0.00012732365673542143
asI10
(lp10
F0.00031761156106082256
aF5.209961446285297e-05
aF0.00012732365673542143
asI11
(lp11
F0.00031761156106082256
aF5.209961446285297e-05
aF0.00012732365673542143
asI12
(lp12
F0.00031761156106082256
aF5.209961446285297e-05
aF0.00012732365673542143
asI13
(lp13
F0.00031761156106082256
aF5.209961446285297e-05
aF0.00012732365673542143
asI14
(lp14
F0.00031761156106082256
aF5.209961446285297e-05
aF0.00012732365673542143
asI15
(lp15
F0.00031761156106082256
aF5.209961446285297e-05
aF0.00012732365673542143
asI16
(lp16
F0.00031761156106082256
aF5.209961446285297e-05
aF0.00012732365673542143
asI17
(lp17
F0.00031761156106082256
aF5.209961446285297e-05
aF0.00012732365673542143
asI18
(lp18
F0.00031761156106082256
aF5.209961446285297e-05
aF0.00012732365673542143
asI19
(lp19
F0.00031761156106082256
aF5.209961446285297e-05
aF0.00012732365673542143
asI20
(lp20
F0.00031761156106082256
aF5.209961446285297e-05
aF0.00012732365673542143
asI21
(lp21
F0.00031761156106082256
aF5.209961446285297e-05
aF0.00012732365673542143
asI22
(lp22
F0.00031761156106082256
aF5.209961446285297e-05
aF0.00012732365673542143
asI23
(lp23
F0.00031761156106082256
aF5.209961446285297e-05
aF0.00012732365673542143
asI24
(lp24
F0.00031761156106082256
aF5.209961446285297e-05
aF0.00012732365673542143
asI25
(lp25
F0.00031761156106082256
aF5.209961446285297e-05
aF0.00012732365673542143
asI26
(lp26
F0.00031761156106082256
aF5.209961446285297e-05
aF0.00012732365673542143
asI27
(lp27
F0.00031761156106082256
aF5.209961446285297e-05
aF0.00012732365673542143
asI28
(lp28
F0.00031761156106082256
aF5.209961446285297e-05
aF0.00012732365673542143
asI29
(lp29
F0.00031761156106082256
aF5.209961446285297e-05
aF0.00012732365673542143
asI30
(lp30
F0.00031761156106082256
aF5.209961446285297e-05
aF0.00012732365673542143
asI31
(lp31
F0.00031761156106082256
aF5.209961446285297e-05
aF0.00012732365673542143
asI32
(lp32
F0.00031761156106082256
aF5.209961446285297e-05
aF0.00012732365673542143
asI33
(lp33
F0.00031761156106082256
aF5.209961446285297e-05
aF0.00012732365673542143
asI34
(lp34
F0.00031761156106082256
aF5.209961446285297e-05
aF0.00012732365673542143
asI35
(lp35
F0.00031761156106082256
aF5.209961446285297e-05
aF0.00012732365673542143
asI36
(lp36
F0.00031761156106082256
aF5.209961446285297e-05
aF0.00012732365673542143
asI37
(lp37
F0.00031761156106082256
aF5.209961446285297e-05
aF0.00012732365673542143
asI38
(lp38
F0.00031761156106082256
aF5.209961446285297e-05
aF0.00012732365673542143
asI39
(lp39
F0.00031761156106082256
aF5.209961446285297e-05
aF0.00012732365673542143
asI40
(lp40
F0.00031761156106082256
aF5.209961446285297e-05
aF0.00012732365673542143
asI41
(lp41
F0.00031761156106082256
aF5.209961446285297e-05
aF0.00012732365673542143
asI42
(lp42
F0.00031761156106082256
aF5.209961446285297e-05
aF0.00012732365673542143
asI43
(lp43
F0.00031761156106082256
aF5.209961446285297e-05
aF0.00012732365673542143
asI44
(lp44
F0.00031761156106082256
aF5.209961446285297e-05
aF0.00012732365673542143
asI45
(lp45
F0.00031761156106082256
aF5.209961446285297e-05
aF0.00012732365673542143
asI46
(lp46
F0.00031761156106082256
aF5.209961446285297e-05
aF0.00012732365673542143
asI47
(lp47
F0.00031761156106082256
aF5.209961446285297e-05
aF0.00012732365673542143
asI48
(lp48
F0.00031761156106082256
aF5.209961446285297e-05
aF0.00012732365673542143
asI49
(lp49
F0.00031761156106082256
aF5.209961446285297e-05
aF0.00012732365673542143
asI50
(lp50
F0.00031761156106082256
aF5.209961446285297e-05
aF0.00012732365673542143
asI51
(lp51
F0.00031761156106082256
aF5.209961446285297e-05
aF0.00012732365673542143
asI52
(lp52
F0.00031761156106082256
aF5.209961446285297e-05
aF0.00012732365673542143
asI53
(lp53
F0.00031761156106082256
aF5.209961446285297e-05
aF0.00012732365673542143
asI54
(lp54
F0.00031761156106082256
aF5.209961446285297e-05
aF0.00012732365673542143
asI55
(lp55
F0.00031761156106082256
aF5.209961446285297e-05
aF0.00012732365673542143
asI56
(lp56
F0.00031761156106082256
aF5.209961446285297e-05
aF0.00012732365673542143
asI57
(lp57
F0.00031761156106082256
aF5.209961446285297e-05
aF0.00012732365673542143
asI58
(lp58
F0.00031761156106082256
aF5.209961446285297e-05
aF0.00012732365673542143
asI59
(lp59
F0.00031761156106082256
aF5.209961446285297e-05
aF0.00012732365673542143
asI60
(lp60
F0.00031761156106082256
aF5.209961446285297e-05
aF0.00012732365673542143
asI61
(lp61
F0.00031761156106082256
aF5.209961446285297e-05
aF0.00012732365673542143
asI62
(lp62
F0.00031761156106082256
aF5.209961446285297e-05
aF0.00012732365673542143
asI63
(lp63
F0.00031761156106082256
aF5.209961446285297e-05
aF0.00012732365673542143
asI64
(lp64
F0.00031761156106082256
aF5.209961446285297e-05
aF0.00012732365673542143
asI65
(lp65
F0.00031761156106082256
aF5.209961446285297e-05
aF0.00012732365673542143
asI66
(lp66
F0.00031761156106082256
aF5.209961446285297e-05
aF0.00012732365673542143
asI67
(lp67
F0.00031761156106082256
aF5.209961446285297e-05
aF0.00012732365673542143
asI68
(lp68
F0.00031761156106082256
aF5.209961446285297e-05
aF0.00012732365673542143
asI69
(lp69
F0.00031761156106082256
aF5.209961446285297e-05
aF0.00012732365673542143
asI70
(lp70
F0.00031761156106082256
aF5.209961446285297e-05
aF0.00012732365673542143
asI71
(lp71
F0.00031761156106082256
aF5.209961446285297e-05
aF0.00012732365673542143
asI72
(lp72
F0.00031761156106082256
aF5.209961446285297e-05
aF0.00012732365673542143
asI73
(lp73
F0.00031761156106082256
aF5.209961446285297e-05
aF0.00012732365673542143
asI74
(lp74
F0.00031761156106082256
aF5.209961446285297e-05
aF0.00012732365673542143
asI75
(lp75
F0.00031761156106082256
aF5.209961446285297e-05
aF0.00012732365673542143
asI76
(lp76
F0.00031761156106082256
aF5.209961446285297e-05
aF0.00012732365673542143
asI77
(lp77
F0.00031761156106082256
aF5.209961446285297e-05
aF0.00012732365673542143
asI78
(lp78
F0.00031761156106082256
aF5.209961446285297e-05
aF0.00012732365673542143
asI79
(lp79
F0.00031761156106082256
aF5.209961446285297e-05
aF0.00012732365673542143
asI80
(lp80
F0.00031761156106082256
aF5.209961446285297e-05
aF0.00012732365673542143
asI81
(lp81
F0.00031761156106082256
aF5.209961446285297e-05
aF0.00012732365673542143
asI82
(lp82
F0.00031761156106082256
aF5.209961446285297e-05
aF0.00012732365673542143
asI83
(lp83
F0.00031761156106082256
aF5.209961446285297e-05
aF0.00012732365673542143
asI84
(lp84
F0.00031761156106082256
aF5.209961446285297e-05
aF0.00012732365673542143
asI85
(lp85
F0.00031761156106082256
aF5.209961446285297e-05
aF0.00012732365673542143
asI86
(lp86
F0.00031761156106082256
aF5.209961446285297e-05
aF0.00012732365673542143
asI87
(lp87
F0.00031761156106082256
aF5.209961446285297e-05
aF0.00012732365673542143
asI88
(lp88
F0.00031761156106082256
aF5.209961446285297e-05
aF0.00012732365673542143
asI89
(lp89
F0.00031761156106082256
aF5.209961446285297e-05
aF0.00012732365673542143
asI90
(lp90
F0.00031761156106082256
aF5.209961446285297e-05
aF0.00012732365673542143
asI91
(lp91
F0.00031761156106082256
aF5.209961446285297e-05
aF0.00012732365673542143
asI92
(lp92
F0.00031761156106082256
aF5.209961446285297e-05
aF0.00012732365673542143
asI93
(lp93
F0.00031761156106082256
aF5.209961446285297e-05
aF0.00012732365673542143
asI94
(lp94
F0.00031761156106082256
aF5.209961446285297e-05
aF0.00012732365673542143
asI95
(lp95
F0.00031761156106082256
aF5.209961446285297e-05
aF0.00012732365673542143
asI96
(lp96
F0.00031761156106082256
aF5.209961446285297e-05
aF0.00012732365673542143
asI97
(lp97
F0.00031761156106082256
aF5.209961446285297e-05
aF0.00012732365673542143
asI98
(lp98
F0.00031761156106082256
aF5.209961446285297e-05
aF0.00012732365673542143
asI99
(lp99
F0.00031761156106082256
aF5.209961446285297e-05
aF0.00012732365673542143
asI100
(lp100
F0.00031761156106082256
aF5.209961446285297e-05
aF0.00012732365673542143
asI101
(lp101
F0.00031761156106082256
aF5.209961446285297e-05
aF0.00012732365673542143
asI102
(lp102
F0.00031761156106082256
aF5.209961446285297e-05
aF0.00012732365673542143
asI103
(lp103
F0.00031761156106082256
aF5.209961446285297e-05
aF0.00012732365673542143
asI104
(lp104
F0.00031761156106082256
aF5.209961446285297e-05
aF0.00012732365673542143
asI105
(lp105
F0.00031761156106082256
aF5.209961446285297e-05
aF0.00012732365673542143
asI106
(lp106
F0.00031761156106082256
aF5.209961446285297e-05
aF0.00012732365673542143
asI107
(lp107
F0.00031761156106082256
aF5.209961446285297e-05
aF0.00012732365673542143
asI108
(lp108
F0.00031761156106082256
aF5.209961446285297e-05
aF0.00012732365673542143
asI109
(lp109
F0.00031761156106082256
aF5.209961446285297e-05
aF0.00012732365673542143
asI110
(lp110
F0.00031761156106082256
aF5.209961446285297e-05
aF0.00012732365673542143
asI111
(lp111
F0.00031761156106082256
aF5.209961446285297e-05
aF0.00012732365673542143
asI112
(lp112
F0.00031761156106082256
aF5.209961446285297e-05
aF0.00012732365673542143
asI113
(lp113
F0.00031761156106082256
aF5.209961446285297e-05
aF0.00012732365673542143
asI114
(lp114
F0.00031761156106082256
aF5.209961446285297e-05
aF0.00012732365673542143
asI115
(lp115
F0.00031761156106082256
aF5.209961446285297e-05
aF0.00012732365673542143
asI116
(lp116
F0.00031761156106082256
aF5.209961446285297e-05
aF0.00012732365673542143
asI117
(lp117
F0.00031761156106082256
aF5.209961446285297e-05
aF0.00012732365673542143
asI118
(lp118
F0.00031761156106082256
aF5.209961446285297e-05
aF0.00012732365673542143
asI119
(lp119
F0.00031761156106082256
aF5.209961446285297e-05
aF0.00012732365673542143
asI120
(lp120
F0.00031761156106082256
aF5.209961446285297e-05
aF0.00012732365673542143
asI121
(lp121
F0.00031761156106082256
aF5.209961446285297e-05
aF0.00012732365673542143
asI122
(lp122
F0.00031761156106082256
aF5.209961446285297e-05
aF0.00012732365673542143
asI123
(lp123
F0.00031761156106082256
aF5.209961446285297e-05
aF0.00012732365673542143
asI124
(lp124
F0.00031761156106082256
aF5.209961446285297e-05
aF0.00012732365673542143
asI125
(lp125
F0.00031761156106082256
aF5.209961446285297e-05
aF0.00012732365673542143
asI126
(lp126
F0.00031761156106082256
aF5.209961446285297e-05
aF0.00012732365673542143
asI127
(lp127
F0.00031761156106082256
aF5.209961446285297e-05
aF0.00012732365673542143
asI128
(lp128
F0.00031761156106082256
aF5.209961446285297e-05
aF0.00012732365673542143
asI129
(lp129
F0.00031761156106082256
aF5.209961446285297e-05
aF0.00012732365673542143
asI130
(lp130
F0.00031761156106082256
aF5.209961446285297e-05
aF0.00012732365673542143
asI131
(lp131
F0.00031761156106082256
aF5.209961446285297e-05
aF0.00012732365673542143
asI132
(lp132
F0.00031761156106082256
aF5.209961446285297e-05
aF0.00012732365673542143
asI133
(lp133
F0.00031761156106082256
aF5.209961446285297e-05
aF0.00012732365673542143
asI134
(lp134
F0.00031761156106082256
aF5.209961446285297e-05
aF0.00012732365673542143
asI135
(lp135
F0.00031761156106082256
aF5.209961446285297e-05
aF0.00012732365673542143
asI136
(lp136
F0.00031761156106082256
aF5.209961446285297e-05
aF0.00012732365673542143
asI137
(lp137
F0.00031761156106082256
aF5.209961446285297e-05
aF0.00012732365673542143
asI138
(lp138
F0.00031761156106082256
aF5.209961446285297e-05
aF0.00012732365673542143
asI139
(lp139
F0.00031761156106082256
aF5.209961446285297e-05
aF0.00012732365673542143
asI140
(lp140
F0.00031761156106082256
aF5.209961446285297e-05
aF0.00012732365673542143
asI141
(lp141
F0.00031761156106082256
aF5.209961446285297e-05
aF0.00012732365673542143
asI142
(lp142
F0.00031761156106082256
aF5.209961446285297e-05
aF0.00012732365673542143
asI143
(lp143
F0.00031761156106082256
aF5.209961446285297e-05
aF0.00012732365673542143
asI144
(lp144
F0.00031761156106082256
aF5.209961446285297e-05
aF0.00012732365673542143
asI145
(lp145
F0.00031761156106082256
aF5.209961446285297e-05
aF0.00012732365673542143
asI146
(lp146
F0.00031761156106082256
aF5.209961446285297e-05
aF0.00012732365673542143
asI147
(lp147
F0.00031761156106082256
aF5.209961446285297e-05
aF0.00012732365673542143
asI148
(lp148
F0.00031761156106082256
aF5.209961446285297e-05
aF0.00012732365673542143
asI149
(lp149
F0.00031761156106082256
aF5.209961446285297e-05
aF0.00012732365673542143
asI150
(lp150
F0.00031761156106082256
aF5.209961446285297e-05
aF0.00012732365673542143
asI151
(lp151
F0.00031761156106082256
aF5.209961446285297e-05
aF0.00012732365673542143
asI152
(lp152
F0.00031761156106082256
aF5.209961446285297e-05
aF0.00012732365673542143
asI153
(lp153
F0.00031761156106082256
aF5.209961446285297e-05
aF0.00012732365673542143
asI154
(lp154
F0.00031761156106082256
aF5.209961446285297e-05
aF0.00012732365673542143
asI155
(lp155
F0.00031761156106082256
aF5.209961446285297e-05
aF0.00012732365673542143
asI156
(lp156
F0.00031761156106082256
aF5.209961446285297e-05
aF0.00012732365673542143
asI157
(lp157
F0.00031761156106082256
aF5.209961446285297e-05
aF0.00012732365673542143
asI158
(lp158
F0.00031761156106082256
aF5.209961446285297e-05
aF0.00012732365673542143
asI159
(lp159
F0.00031761156106082256
aF5.209961446285297e-05
aF0.00012732365673542143
asI160
(lp160
F0.00031761156106082256
aF5.209961446285297e-05
aF0.00012732365673542143
asI161
(lp161
F0.00031761156106082256
aF5.209961446285297e-05
aF0.00012732365673542143
asI162
(lp162
F0.00031761156106082256
aF5.209961446285297e-05
aF0.00012732365673542143
asI163
(lp163
F0.00031761156106082256
aF5.209961446285297e-05
aF0.00012732365673542143
asI164
(lp164
F0.00031761156106082256
aF5.209961446285297e-05
aF0.00012732365673542143
asI165
(lp165
F0.00031761156106082256
aF5.209961446285297e-05
aF0.00012732365673542143
asI166
(lp166
F0.00031761156106082256
aF5.209961446285297e-05
aF0.00012732365673542143
asI167
(lp167
F0.00031761156106082256
aF5.209961446285297e-05
aF0.00012732365673542143
asI168
(lp168
F0.00031761156106082256
aF5.209961446285297e-05
aF0.00012732365673542143
asI169
(lp169
F0.00031761156106082256
aF5.209961446285297e-05
aF0.00012732365673542143
asI170
(lp170
F0.00031761156106082256
aF5.209961446285297e-05
aF0.00012732365673542143
asI171
(lp171
F0.00031761156106082256
aF5.209961446285297e-05
aF0.00012732365673542143
asI172
(lp172
F0.00031761156106082256
aF5.209961446285297e-05
aF0.00012732365673542143
asI173
(lp173
F0.00031761156106082256
aF5.209961446285297e-05
aF0.00012732365673542143
asI174
(lp174
F0.00031761156106082256
aF5.209961446285297e-05
aF0.00012732365673542143
asI175
(lp175
F0.00031761156106082256
aF5.209961446285297e-05
aF0.00012732365673542143
asI176
(lp176
F0.00031761156106082256
aF5.209961446285297e-05
aF0.00012732365673542143
asI177
(lp177
F0.00031761156106082256
aF5.209961446285297e-05
aF0.00012732365673542143
asI178
(lp178
F0.00031761156106082256
aF5.209961446285297e-05
aF0.00012732365673542143
asI179
(lp179
F0.00031761156106082256
aF5.209961446285297e-05
aF0.00012732365673542143
asI180
(lp180
F0.00031761156106082256
aF5.209961446285297e-05
aF0.00012732365673542143
asI181
(lp181
F0.00031761156106082256
aF5.209961446285297e-05
aF0.00012732365673542143
asI182
(lp182
F0.00031761156106082256
aF5.209961446285297e-05
aF0.00012732365673542143
asI183
(lp183
F0.00031761156106082256
aF5.209961446285297e-05
aF0.00012732365673542143
asI184
(lp184
F0.00031761156106082256
aF5.209961446285297e-05
aF0.00012732365673542143
asI185
(lp185
F0.00031761156106082256
aF5.209961446285297e-05
aF0.00012732365673542143
asI186
(lp186
F0.00031761156106082256
aF5.209961446285297e-05
aF0.00012732365673542143
asI187
(lp187
F0.00031761156106082256
aF5.209961446285297e-05
aF0.00012732365673542143
asI188
(lp188
F0.00031761156106082256
aF5.209961446285297e-05
aF0.00012732365673542143
asI189
(lp189
F0.00031761156106082256
aF5.209961446285297e-05
aF0.00012732365673542143
asI190
(lp190
F0.00031761156106082256
aF5.209961446285297e-05
aF0.00012732365673542143
asI191
(lp191
F0.00031761156106082256
aF5.209961446285297e-05
aF0.00012732365673542143
asI192
(lp192
F0.00031761156106082256
aF5.209961446285297e-05
aF0.00012732365673542143
asI193
(lp193
F0.00031761156106082256
aF5.209961446285297e-05
aF0.00012732365673542143
asI194
(lp194
F0.00031761156106082256
aF5.209961446285297e-05
aF0.00012732365673542143
asI195
(lp195
F0.00031761156106082256
aF5.209961446285297e-05
aF0.00012732365673542143
asI196
(lp196
F0.00031761156106082256
aF5.209961446285297e-05
aF0.00012732365673542143
asI197
(lp197
F0.00031761156106082256
aF5.209961446285297e-05
aF0.00012732365673542143
asI198
(lp198
F0.00031761156106082256
aF5.209961446285297e-05
aF0.00012732365673542143
asI199
(lp199
F0.00031761156106082256
aF5.209961446285297e-05
aF0.00012732365673542143
asI200
(lp200
F0.00031761156106082256
aF5.209961446285297e-05
aF0.00012732365673542143
asI201
(lp201
F0.00031761156106082256
aF5.209961446285297e-05
aF0.00012732365673542143
asI202
(lp202
F0.00031761156106082256
aF5.209961446285297e-05
aF0.00012732365673542143
asI203
(lp203
F0.00031761156106082256
aF5.209961446285297e-05
aF0.00012732365673542143
asI204
(lp204
F0.00031761156106082256
aF5.209961446285297e-05
aF0.00012732365673542143
asI205
(lp205
F0.00031761156106082256
aF5.209961446285297e-05
aF0.00012732365673542143
asI206
(lp206
F0.00031761156106082256
aF5.209961446285297e-05
aF0.00012732365673542143
asI207
(lp207
F0.00031761156106082256
aF5.209961446285297e-05
aF0.00012732365673542143
asI208
(lp208
F0.00031761156106082256
aF5.209961446285297e-05
aF0.00012732365673542143
asI209
(lp209
F0.00031761156106082256
aF5.209961446285297e-05
aF0.00012732365673542143
asI210
(lp210
F0.00031761156106082256
aF5.209961446285297e-05
aF0.00012732365673542143
asI211
(lp211
F0.00031761156106082256
aF5.209961446285297e-05
aF0.00012732365673542143
asI212
(lp212
F0.00031761156106082256
aF5.209961446285297e-05
aF0.00012732365673542143
asI213
(lp213
F0.00031761156106082256
aF5.209961446285297e-05
aF0.00012732365673542143
asI214
(lp214
F0.00031761156106082256
aF5.209961446285297e-05
aF0.00012732365673542143
asI215
(lp215
F0.00031761156106082256
aF5.209961446285297e-05
aF0.00012732365673542143
asI216
(lp216
F0.00031761156106082256
aF5.209961446285297e-05
aF0.00012732365673542143
asI217
(lp217
F0.00031761156106082256
aF5.209961446285297e-05
aF0.00012732365673542143
asI218
(lp218
F0.00031761156106082256
aF5.209961446285297e-05
aF0.00012732365673542143
asI219
(lp219
F0.00031761156106082256
aF5.209961446285297e-05
aF0.00012732365673542143
asI220
(lp220
F0.00031761156106082256
aF5.209961446285297e-05
aF0.00012732365673542143
asI221
(lp221
F0.00031761156106082256
aF5.209961446285297e-05
aF0.00012732365673542143
asI222
(lp222
F0.00031761156106082256
aF5.209961446285297e-05
aF0.00012732365673542143
asI223
(lp223
F0.00031761156106082256
aF5.209961446285297e-05
aF0.00012732365673542143
asI224
(lp224
F0.00031761156106082256
aF5.209961446285297e-05
aF0.00012732365673542143
asI225
(lp225
F0.00031761156106082256
aF5.209961446285297e-05
aF0.00012732365673542143
asI226
(lp226
F0.00031761156106082256
aF5.209961446285297e-05
aF0.00012732365673542143
asI227
(lp227
F0.00031761156106082256
aF5.209961446285297e-05
aF0.00012732365673542143
asI228
(lp228
F0.00031761156106082256
aF5.209961446285297e-05
aF0.00012732365673542143
asI229
(lp229
F0.00031761156106082256
aF5.209961446285297e-05
aF0.00012732365673542143
asI230
(lp230
F0.00031761156106082256
aF5.209961446285297e-05
aF0.00012732365673542143
asI231
(lp231
F0.00031761156106082256
aF5.209961446285297e-05
aF0.00012732365673542143
asI232
(lp232
F0.00031761156106082256
aF5.209961446285297e-05
aF0.00012732365673542143
asI233
(lp233
F0.00031761156106082256
aF5.209961446285297e-05
aF0.00012732365673542143
asI234
(lp234
F0.00031761156106082256
aF5.209961446285297e-05
aF0.00012732365673542143
asI235
(lp235
F0.00031761156106082256
aF5.209961446285297e-05
aF0.00012732365673542143
asI236
(lp236
F0.00031761156106082256
aF5.209961446285297e-05
aF0.00012732365673542143
asI237
(lp237
F0.00031761156106082256
aF5.209961446285297e-05
aF0.00012732365673542143
asI238
(lp238
F0.00031761156106082256
aF5.209961446285297e-05
aF0.00012732365673542143
asI239
(lp239
F0.00031761156106082256
aF5.209961446285297e-05
aF0.00012732365673542143
asI240
(lp240
F0.00031761156106082256
aF5.209961446285297e-05
aF0.00012732365673542143
asI241
(lp241
F0.00031761156106082256
aF5.209961446285297e-05
aF0.00012732365673542143
asI242
(lp242
F0.00031761156106082256
aF5.209961446285297e-05
aF0.00012732365673542143
asI243
(lp243
F0.00031761156106082256
aF5.209961446285297e-05
aF0.00012732365673542143
asI244
(lp244
F0.00031761156106082256
aF5.209961446285297e-05
aF0.00012732365673542143
asI245
(lp245
F0.00031761156106082256
aF5.209961446285297e-05
aF0.00012732365673542143
asI246
(lp246
F0.00031761156106082256
aF5.209961446285297e-05
aF0.00012732365673542143
asI247
(lp247
F0.00031761156106082256
aF5.209961446285297e-05
aF0.00012732365673542143
asI248
(lp248
F0.00031761156106082256
aF5.209961446285297e-05
aF0.00012732365673542143
asI249
(lp249
F0.00031761156106082256
aF5.209961446285297e-05
aF0.00012732365673542143
asI250
(lp250
F0.00031761156106082256
aF5.209961446285297e-05
aF0.00012732365673542143
asI251
(lp251
F0.00031761156106082256
aF5.209961446285297e-05
aF0.00012732365673542143
asI252
(lp252
F0.00031761156106082256
aF5.209961446285297e-05
aF0.00012732365673542143
asI253
(lp253
F0.00031761156106082256
aF5.209961446285297e-05
aF0.00012732365673542143
asI254
(lp254
F0.00031761156106082256
aF5.209961446285297e-05
aF0.00012732365673542143
asI255
(lp255
F0.00031761156106082256
aF5.209961446285297e-05
aF0.00012732365673542143
asI256
(lp256
F0.00031761156106082256
aF5.209961446285297e-05
aF0.00012732365673542143
asI257
(lp257
F0.00031761156106082256
aF5.209961446285297e-05
aF0.00012732365673542143
asI258
(lp258
F0.00031761156106082256
aF5.209961446285297e-05
aF0.00012732365673542143
asI259
(lp259
F0.00031761156106082256
aF5.209961446285297e-05
aF0.00012732365673542143
asI260
(lp260
F0.00031761156106082256
aF5.209961446285297e-05
aF0.00012732365673542143
asI261
(lp261
F0.00031761156106082256
aF5.209961446285297e-05
aF0.00012732365673542143
asI262
(lp262
F0.00031761156106082256
aF5.209961446285297e-05
aF0.00012732365673542143
asI263
(lp263
F0.00031761156106082256
aF5.209961446285297e-05
aF0.00012732365673542143
asI264
(lp264
F0.00031761156106082256
aF5.209961446285297e-05
aF0.00012732365673542143
asI265
(lp265
F0.00031761156106082256
aF5.209961446285297e-05
aF0.00012732365673542143
asI266
(lp266
F0.00031761156106082256
aF5.209961446285297e-05
aF0.00012732365673542143
asI267
(lp267
F0.00031761156106082256
aF5.209961446285297e-05
aF0.00012732365673542143
asI268
(lp268
F0.00031761156106082256
aF5.209961446285297e-05
aF0.00012732365673542143
asI269
(lp269
F0.00031761156106082256
aF5.209961446285297e-05
aF0.00012732365673542143
asI270
(lp270
F0.00031761156106082256
aF5.209961446285297e-05
aF0.00012732365673542143
asI271
(lp271
F0.00031761156106082256
aF5.209961446285297e-05
aF0.00012732365673542143
asI272
(lp272
F0.00031761156106082256
aF5.209961446285297e-05
aF0.00012732365673542143
asI274
(lp273
F0.00031761156106082256
aF5.209961446285297e-05
aF0.00012732365673542143
asI275
(lp274
F0.00031761156106082256
aF5.209961446285297e-05
aF0.00012732365673542143
asI276
(lp275
F0.00031761156106082256
aF5.209961446285297e-05
aF0.00012732365673542143
asI277
(lp276
F0.00031761156106082256
aF5.209961446285297e-05
aF0.00012732365673542143
asI278
(lp277
F0.00031761156106082256
aF5.209961446285297e-05
aF0.00012732365673542143
asI279
(lp278
F0.00031761156106082256
aF5.209961446285297e-05
aF0.00012732365673542143
asI8472
(lp279
F0.00031761156106082256
aF5.209961446285297e-05
aF0.00012732365673542143
asI281
(lp280
F0.00031761156106082256
aF5.209961446285297e-05
aF0.00012732365673542143
asI282
(lp281
F0.00031761156106082256
aF5.209961446285297e-05
aF0.00012732365673542143
asI283
(lp282
F0.00031761156106082256
aF5.209961446285297e-05
aF0.00012732365673542143
asI284
(lp283
F0.00031761156106082256
aF5.209961446285297e-05
aF0.00012732365673542143
asI285
(lp284
F0.00031761156106082256
aF5.209961446285297e-05
aF0.00012732365673542143
asI286
(lp285
F0.00031761156106082256
aF5.209961446285297e-05
aF0.00012732365673542143
asI287
(lp286
F0.00031761156106082256
aF5.209961446285297e-05
aF0.00012732365673542143
asI288
(lp287
F0.00031761156106082256
aF5.209961446285297e-05
aF0.00012732365673542143
asI289
(lp288
F0.00031761156106082256
aF5.209961446285297e-05
aF0.00012732365673542143
asI290
(lp289
F0.00031761156106082256
aF5.209961446285297e-05
aF0.00012732365673542143
asI291
(lp290
F0.00031761156106082256
aF5.209961446285297e-05
aF0.00012732365673542143
asI292
(lp291
F0.00031761156106082256
aF5.209961446285297e-05
aF0.00012732365673542143
asI293
(lp292
F0.00031761156106082256
aF5.209961446285297e-05
aF0.00012732365673542143
asI294
(lp293
F0.00031761156106082256
aF5.209961446285297e-05
aF0.00012732365673542143
asI295
(lp294
F0.00031761156106082256
aF5.209961446285297e-05
aF0.00012732365673542143
asI296
(lp295
F0.00031761156106082256
aF5.209961446285297e-05
aF0.00012732365673542143
asI297
(lp296
F0.00031761156106082256
aF5.209961446285297e-05
aF0.00012732365673542143
asI298
(lp297
F0.00031761156106082256
aF5.209961446285297e-05
aF0.00012732365673542143
asI299
(lp298
F0.00031761156106082256
aF5.209961446285297e-05
aF0.00012732365673542143
asI300
(lp299
F0.00031761156106082256
aF5.209961446285297e-05
aF0.00012732365673542143
asI301
(lp300
F0.00031761156106082256
aF5.209961446285297e-05
aF0.00012732365673542143
asI302
(lp301
F0.00031761156106082256
aF5.209961446285297e-05
aF0.00012732365673542143
asI303
(lp302
F0.00031761156106082256
aF5.209961446285297e-05
aF0.00012732365673542143
asI304
(lp303
F0.00031761156106082256
aF5.209961446285297e-05
aF0.00012732365673542143
asI305
(lp304
F0.00031761156106082256
aF5.209961446285297e-05
aF0.00012732365673542143
asI306
(lp305
F0.00031761156106082256
aF5.209961446285297e-05
aF0.00012732365673542143
asI307
(lp306
F0.00031761156106082256
aF5.209961446285297e-05
aF0.00012732365673542143
asI308
(lp307
F0.00031761156106082256
aF5.209961446285297e-05
aF0.00012732365673542143
asI309
(lp308
F0.00031761156106082256
aF5.209961446285297e-05
aF0.00012732365673542143
asI310
(lp309
F0.00031761156106082256
aF5.209961446285297e-05
aF0.00012732365673542143
asI311
(lp310
F0.00031761156106082256
aF5.209961446285297e-05
aF0.00012732365673542143
asI312
(lp311
F0.00031761156106082256
aF5.209961446285297e-05
aF0.00012732365673542143
asI313
(lp312
F0.00031761156106082256
aF5.209961446285297e-05
aF0.00012732365673542143
asI314
(lp313
F0.00031761156106082256
aF5.209961446285297e-05
aF0.00012732365673542143
asI315
(lp314
F0.00031761156106082256
aF5.209961446285297e-05
aF0.00012732365673542143
asI316
(lp315
F0.00031761156106082256
aF5.209961446285297e-05
aF0.00012732365673542143
asI317
(lp316
F0.00031761156106082256
aF5.209961446285297e-05
aF0.00012732365673542143
asI318
(lp317
F0.00031761156106082256
aF5.209961446285297e-05
aF0.00012732365673542143
asI319
(lp318
F0.00031761156106082256
aF5.209961446285297e-05
aF0.00012732365673542143
asI320
(lp319
F0.00031761156106082256
aF5.209961446285297e-05
aF0.00012732365673542143
asI321
(lp320
F0.00031761156106082256
aF5.209961446285297e-05
aF0.00012732365673542143
asI322
(lp321
F0.00031761156106082256
aF5.209961446285297e-05
aF0.00012732365673542143
asI323
(lp322
F0.00031761156106082256
aF5.209961446285297e-05
aF0.00012732365673542143
asI324
(lp323
F0.00031761156106082256
aF5.209961446285297e-05
aF0.00012732365673542143
asI325
(lp324
F0.00031761156106082256
aF5.209961446285297e-05
aF0.00012732365673542143
asI327
(lp325
F0.00031761156106082256
aF5.209961446285297e-05
aF0.00012732365673542143
asI328
(lp326
F0.00031761156106082256
aF5.209961446285297e-05
aF0.00012732365673542143
asI329
(lp327
F0.00031761156106082256
aF5.209961446285297e-05
aF0.00012732365673542143
asI330
(lp328
F0.00031761156106082256
aF5.209961446285297e-05
aF0.00012732365673542143
asI331
(lp329
F0.00031761156106082256
aF5.209961446285297e-05
aF0.00012732365673542143
asI332
(lp330
F0.00031761156106082256
aF5.209961446285297e-05
aF0.00012732365673542143
asI333
(lp331
F0.00031761156106082256
aF5.209961446285297e-05
aF0.00012732365673542143
asI335
(lp332
F0.00031761156106082256
aF5.209961446285297e-05
aF0.00012732365673542143
asI336
(lp333
F0.00031761156106082256
aF5.209961446285297e-05
aF0.00012732365673542143
asI337
(lp334
F0.00031761156106082256
aF5.209961446285297e-05
aF0.00012732365673542143
asI338
(lp335
F0.00031761156106082256
aF5.209961446285297e-05
aF0.00012732365673542143
asI339
(lp336
F0.00031761156106082256
aF5.209961446285297e-05
aF0.00012732365673542143
asI340
(lp337
F0.00031761156106082256
aF5.209961446285297e-05
aF0.00012732365673542143
asI341
(lp338
F0.00031761156106082256
aF5.209961446285297e-05
aF0.00012732365673542143
asI342
(lp339
F0.00031761156106082256
aF5.209961446285297e-05
aF0.00012732365673542143
asI343
(lp340
F0.00031761156106082256
aF5.209961446285297e-05
aF0.00012732365673542143
asI344
(lp341
F0.00031761156106082256
aF5.209961446285297e-05
aF0.00012732365673542143
asI345
(lp342
F0.00031761156106082256
aF5.209961446285297e-05
aF0.00012732365673542143
asI346
(lp343
F0.00031761156106082256
aF5.209961446285297e-05
aF0.00012732365673542143
asI347
(lp344
F0.00031761156106082256
aF5.209961446285297e-05
aF0.00012732365673542143
asI348
(lp345
F0.00031761156106082256
aF5.209961446285297e-05
aF0.00012732365673542143
asI349
(lp346
F0.00031761156106082256
aF5.209961446285297e-05
aF0.00012732365673542143
asI350
(lp347
F0.00031761156106082256
aF5.209961446285297e-05
aF0.00012732365673542143
asI351
(lp348
F0.00031761156106082256
aF5.209961446285297e-05
aF0.00012732365673542143
asI352
(lp349
F0.00031761156106082256
aF5.209961446285297e-05
aF0.00012732365673542143
asI353
(lp350
F0.00031761156106082256
aF5.209961446285297e-05
aF0.00012732365673542143
asI354
(lp351
F0.00031761156106082256
aF5.209961446285297e-05
aF0.00012732365673542143
asI355
(lp352
F0.00031761156106082256
aF5.209961446285297e-05
aF0.00012732365673542143
asI356
(lp353
F0.00031761156106082256
aF5.209961446285297e-05
aF0.00012732365673542143
asI357
(lp354
F0.00031761156106082256
aF5.209961446285297e-05
aF0.00012732365673542143
asI358
(lp355
F0.00031761156106082256
aF5.209961446285297e-05
aF0.00012732365673542143
asI359
(lp356
F0.00031761156106082256
aF5.209961446285297e-05
aF0.00012732365673542143
asI360
(lp357
F0.00031761156106082256
aF5.209961446285297e-05
aF0.00012732365673542143
asI361
(lp358
F0.00031761156106082256
aF5.209961446285297e-05
aF0.00012732365673542143
asI2410
(lp359
F0.00031761156106082256
aF5.209961446285297e-05
aF0.00012732365673542143
asI363
(lp360
F0.00031761156106082256
aF5.209961446285297e-05
aF0.00012732365673542143
asI364
(lp361
F0.00031761156106082256
aF5.209961446285297e-05
aF0.00012732365673542143
asI365
(lp362
F0.00031761156106082256
aF5.209961446285297e-05
aF0.00012732365673542143
asI366
(lp363
F0.00031761156106082256
aF5.209961446285297e-05
aF0.00012732365673542143
asI367
(lp364
F0.00031761156106082256
aF5.209961446285297e-05
aF0.00012732365673542143
asI368
(lp365
F0.00031761156106082256
aF5.209961446285297e-05
aF0.00012732365673542143
asI369
(lp366
F0.00031761156106082256
aF5.209961446285297e-05
aF0.00012732365673542143
asI370
(lp367
F0.00031761156106082256
aF5.209961446285297e-05
aF0.00012732365673542143
asI371
(lp368
F0.00031761156106082256
aF5.209961446285297e-05
aF0.00012732365673542143
asI2420
(lp369
F0.00031761156106082256
aF5.209961446285297e-05
aF0.00012732365673542143
asI373
(lp370
F0.00031761156106082256
aF5.209961446285297e-05
aF0.00012732365673542143
asI374
(lp371
F0.00031761156106082256
aF5.209961446285297e-05
aF0.00012732365673542143
asI2423
(lp372
F0.00031761156106082256
aF5.209961446285297e-05
aF0.00012732365673542143
asI376
(lp373
F0.00031761156106082256
aF5.209961446285297e-05
aF0.00012732365673542143
asI377
(lp374
F0.00031761156106082256
aF5.209961446285297e-05
aF0.00012732365673542143
asI378
(lp375
F0.00031761156106082256
aF5.209961446285297e-05
aF0.00012732365673542143
asI379
(lp376
F0.00031761156106082256
aF5.209961446285297e-05
aF0.00012732365673542143
asI380
(lp377
F0.00031761156106082256
aF5.209961446285297e-05
aF0.00012732365673542143
asI381
(lp378
F0.00031761156106082256
aF5.209961446285297e-05
aF0.00012732365673542143
asI382
(lp379
F0.00031761156106082256
aF5.209961446285297e-05
aF0.00012732365673542143
asI383
(lp380
F0.00031761156106082256
aF5.209961446285297e-05
aF0.00012732365673542143
asI384
(lp381
F0.00031761156106082256
aF5.209961446285297e-05
aF0.00012732365673542143
asI385
(lp382
F0.00031761156106082256
aF5.209961446285297e-05
aF0.00012732365673542143
asI386
(lp383
F0.00031761156106082256
aF5.209961446285297e-05
aF0.00012732365673542143
asI388
(lp384
F0.00031761156106082256
aF5.209961446285297e-05
aF0.00012732365673542143
asI389
(lp385
F0.00031761156106082256
aF5.209961446285297e-05
aF0.00012732365673542143
asI390
(lp386
F0.00031761156106082256
aF5.209961446285297e-05
aF0.00012732365673542143
asI391
(lp387
F0.00031761156106082256
aF5.209961446285297e-05
aF0.00012732365673542143
asI392
(lp388
F0.00031761156106082256
aF5.209961446285297e-05
aF0.00012732365673542143
asI394
(lp389
F0.00031761156106082256
aF5.209961446285297e-05
aF0.00012732365673542143
asI395
(lp390
F0.00031761156106082256
aF5.209961446285297e-05
aF0.00012732365673542143
asI396
(lp391
F0.00031761156106082256
aF5.209961446285297e-05
aF0.00012732365673542143
asI399
(lp392
F0.00031761156106082256
aF5.209961446285297e-05
aF0.00012732365673542143
asI401
(lp393
F0.00031761156106082256
aF5.209961446285297e-05
aF0.00012732365673542143
asI402
(lp394
F0.00031761156106082256
aF5.209961446285297e-05
aF0.00012732365673542143
asI403
(lp395
F0.00031761156106082256
aF5.209961446285297e-05
aF0.00012732365673542143
asI404
(lp396
F0.00031761156106082256
aF5.209961446285297e-05
aF0.00012732365673542143
asI405
(lp397
F0.00031761156106082256
aF5.209961446285297e-05
aF0.00012732365673542143
asI406
(lp398
F0.00031761156106082256
aF5.209961446285297e-05
aF0.00012732365673542143
asI407
(lp399
F0.00031761156106082256
aF5.209961446285297e-05
aF0.00012732365673542143
asI408
(lp400
F0.00031761156106082256
aF5.209961446285297e-05
aF0.00012732365673542143
asI409
(lp401
F0.00031761156106082256
aF5.209961446285297e-05
aF0.00012732365673542143
asI410
(lp402
F0.00031761156106082256
aF5.209961446285297e-05
aF0.00012732365673542143
asI411
(lp403
F0.00031761156106082256
aF5.209961446285297e-05
aF0.00012732365673542143
asI412
(lp404
F0.00031761156106082256
aF5.209961446285297e-05
aF0.00012732365673542143
asI413
(lp405
F0.00031761156106082256
aF5.209961446285297e-05
aF0.00012732365673542143
asI414
(lp406
F0.00031761156106082256
aF5.209961446285297e-05
aF0.00012732365673542143
asI415
(lp407
F0.00031761156106082256
aF5.209961446285297e-05
aF0.00012732365673542143
asI416
(lp408
F0.00031761156106082256
aF5.209961446285297e-05
aF0.00012732365673542143
asI417
(lp409
F0.00031761156106082256
aF5.209961446285297e-05
aF0.00012732365673542143
asI418
(lp410
F0.00031761156106082256
aF5.209961446285297e-05
aF0.00012732365673542143
asI419
(lp411
F0.00031761156106082256
aF5.209961446285297e-05
aF0.00012732365673542143
asI420
(lp412
F0.00031761156106082256
aF5.209961446285297e-05
aF0.00012732365673542143
asI421
(lp413
F0.00031761156106082256
aF5.209961446285297e-05
aF0.00012732365673542143
asI422
(lp414
F0.00031761156106082256
aF5.209961446285297e-05
aF0.00012732365673542143
asI423
(lp415
F0.00031761156106082256
aF5.209961446285297e-05
aF0.00012732365673542143
asI424
(lp416
F0.00031761156106082256
aF5.209961446285297e-05
aF0.00012732365673542143
asI425
(lp417
F0.00031761156106082256
aF5.209961446285297e-05
aF0.00012732365673542143
asI427
(lp418
F0.00031761156106082256
aF5.209961446285297e-05
aF0.00012732365673542143
asI428
(lp419
F0.00031761156106082256
aF5.209961446285297e-05
aF0.00012732365673542143
asI429
(lp420
F0.00031761156106082256
aF5.209961446285297e-05
aF0.00012732365673542143
asI430
(lp421
F0.00031761156106082256
aF5.209961446285297e-05
aF0.00012732365673542143
asI431
(lp422
F0.00031761156106082256
aF5.209961446285297e-05
aF0.00012732365673542143
asI432
(lp423
F0.00031761156106082256
aF5.209961446285297e-05
aF0.00012732365673542143
asI434
(lp424
F0.00031761156106082256
aF5.209961446285297e-05
aF0.00012732365673542143
asI435
(lp425
F0.00031761156106082256
aF5.209961446285297e-05
aF0.00012732365673542143
asI436
(lp426
F0.00031761156106082256
aF5.209961446285297e-05
aF0.00012732365673542143
asI437
(lp427
F0.00031761156106082256
aF5.209961446285297e-05
aF0.00012732365673542143
asI438
(lp428
F0.00031761156106082256
aF5.209961446285297e-05
aF0.00012732365673542143
asI439
(lp429
F0.00031761156106082256
aF5.209961446285297e-05
aF0.00012732365673542143
asI440
(lp430
F0.00031761156106082256
aF5.209961446285297e-05
aF0.00012732365673542143
asI441
(lp431
F0.00031761156106082256
aF5.209961446285297e-05
aF0.00012732365673542143
asI442
(lp432
F0.00031761156106082256
aF5.209961446285297e-05
aF0.00012732365673542143
asI443
(lp433
F0.00031761156106082256
aF5.209961446285297e-05
aF0.00012732365673542143
asI444
(lp434
F0.00031761156106082256
aF5.209961446285297e-05
aF0.00012732365673542143
asI446
(lp435
F0.00031761156106082256
aF5.209961446285297e-05
aF0.00012732365673542143
asI447
(lp436
F0.00031761156106082256
aF5.209961446285297e-05
aF0.00012732365673542143
asI448
(lp437
F0.00031761156106082256
aF5.209961446285297e-05
aF0.00012732365673542143
asI451
(lp438
F0.00031761156106082256
aF5.209961446285297e-05
aF0.00012732365673542143
asI452
(lp439
F0.00031761156106082256
aF5.209961446285297e-05
aF0.00012732365673542143
asI453
(lp440
F0.00031761156106082256
aF5.209961446285297e-05
aF0.00012732365673542143
asI454
(lp441
F0.00031761156106082256
aF5.209961446285297e-05
aF0.00012732365673542143
asI456
(lp442
F0.00031761156106082256
aF5.209961446285297e-05
aF0.00012732365673542143
asI457
(lp443
F0.00031761156106082256
aF5.209961446285297e-05
aF0.00012732365673542143
asI458
(lp444
F0.00031761156106082256
aF5.209961446285297e-05
aF0.00012732365673542143
asI459
(lp445
F0.00031761156106082256
aF5.209961446285297e-05
aF0.00012732365673542143
asI460
(lp446
F0.00031761156106082256
aF5.209961446285297e-05
aF0.00012732365673542143
asI462
(lp447
F0.00031761156106082256
aF5.209961446285297e-05
aF0.00012732365673542143
asI463
(lp448
F0.00031761156106082256
aF5.209961446285297e-05
aF0.00012732365673542143
asI464
(lp449
F0.00031761156106082256
aF5.209961446285297e-05
aF0.00012732365673542143
asI465
(lp450
F0.00031761156106082256
aF5.209961446285297e-05
aF0.00012732365673542143
asI467
(lp451
F0.00031761156106082256
aF5.209961446285297e-05
aF0.00012732365673542143
asI468
(lp452
F0.00031761156106082256
aF5.209961446285297e-05
aF0.00012732365673542143
asI469
(lp453
F0.00031761156106082256
aF5.209961446285297e-05
aF0.00012732365673542143
asI470
(lp454
F0.00031761156106082256
aF5.209961446285297e-05
aF0.00012732365673542143
asI471
(lp455
F0.00031761156106082256
aF5.209961446285297e-05
aF0.00012732365673542143
asI473
(lp456
F0.00031761156106082256
aF5.209961446285297e-05
aF0.00012732365673542143
asI474
(lp457
F0.00031761156106082256
aF5.209961446285297e-05
aF0.00012732365673542143
asI475
(lp458
F0.00031761156106082256
aF5.209961446285297e-05
aF0.00012732365673542143
asI477
(lp459
F0.00031761156106082256
aF5.209961446285297e-05
aF0.00012732365673542143
asI478
(lp460
F0.00031761156106082256
aF5.209961446285297e-05
aF0.00012732365673542143
asI479
(lp461
F0.00031761156106082256
aF5.209961446285297e-05
aF0.00012732365673542143
asI480
(lp462
F0.00031761156106082256
aF5.209961446285297e-05
aF0.00012732365673542143
asI482
(lp463
F0.00031761156106082256
aF5.209961446285297e-05
aF0.00012732365673542143
asI483
(lp464
F0.00031761156106082256
aF5.209961446285297e-05
aF0.00012732365673542143
asI484
(lp465
F0.00031761156106082256
aF5.209961446285297e-05
aF0.00012732365673542143
asI485
(lp466
F0.00031761156106082256
aF5.209961446285297e-05
aF0.00012732365673542143
asI487
(lp467
F0.00031761156106082256
aF5.209961446285297e-05
aF0.00012732365673542143
asI488
(lp468
F0.00031761156106082256
aF5.209961446285297e-05
aF0.00012732365673542143
asI489
(lp469
F0.00031761156106082256
aF5.209961446285297e-05
aF0.00012732365673542143
asI490
(lp470
F0.00031761156106082256
aF5.209961446285297e-05
aF0.00012732365673542143
asI491
(lp471
F0.00031761156106082256
aF5.209961446285297e-05
aF0.00012732365673542143
asI493
(lp472
F0.00031761156106082256
aF5.209961446285297e-05
aF0.00012732365673542143
asI494
(lp473
F0.00031761156106082256
aF5.209961446285297e-05
aF0.00012732365673542143
asI496
(lp474
F0.00031761156106082256
aF5.209961446285297e-05
aF0.00012732365673542143
asI497
(lp475
F0.00031761156106082256
aF5.209961446285297e-05
aF0.00012732365673542143
asI499
(lp476
F0.00031761156106082256
aF5.209961446285297e-05
aF0.00012732365673542143
asI500
(lp477
F0.00031761156106082256
aF5.209961446285297e-05
aF0.00012732365673542143
asI501
(lp478
F0.00031761156106082256
aF5.209961446285297e-05
aF0.00012732365673542143
asI502
(lp479
F0.00031761156106082256
aF5.209961446285297e-05
aF0.00012732365673542143
asI503
(lp480
F0.00031761156106082256
aF5.209961446285297e-05
aF0.00012732365673542143
asI504
(lp481
F0.00031761156106082256
aF5.209961446285297e-05
aF0.00012732365673542143
asI506
(lp482
F0.00031761156106082256
aF5.209961446285297e-05
aF0.00012732365673542143
asI507
(lp483
F0.00031761156106082256
aF5.209961446285297e-05
aF0.00012732365673542143
asI508
(lp484
F0.00031761156106082256
aF5.209961446285297e-05
aF0.00012732365673542143
asI510
(lp485
F0.00031761156106082256
aF5.209961446285297e-05
aF0.00012732365673542143
asI4607
(lp486
F0.00031761156106082256
aF5.209961446285297e-05
aF0.00012732365673542143
asI513
(lp487
F0.00031761156106082256
aF5.209961446285297e-05
aF0.00012732365673542143
asI514
(lp488
F0.00031761156106082256
aF5.209961446285297e-05
aF0.00012732365673542143
asI516
(lp489
F0.00031761156106082256
aF5.209961446285297e-05
aF0.00012732365673542143
asI517
(lp490
F0.00031761156106082256
aF5.209961446285297e-05
aF0.00012732365673542143
asI518
(lp491
F0.00031761156106082256
aF5.209961446285297e-05
aF0.00012732365673542143
asI519
(lp492
F0.00031761156106082256
aF5.209961446285297e-05
aF0.00012732365673542143
asI520
(lp493
F0.00031761156106082256
aF5.209961446285297e-05
aF0.00012732365673542143
asI521
(lp494
F0.00031761156106082256
aF5.209961446285297e-05
aF0.00012732365673542143
asI522
(lp495
F0.00031761156106082256
aF5.209961446285297e-05
aF0.00012732365673542143
asI524
(lp496
F0.00031761156106082256
aF5.209961446285297e-05
aF0.00012732365673542143
asI525
(lp497
F0.00031761156106082256
aF5.209961446285297e-05
aF0.00012732365673542143
asI527
(lp498
F0.00031761156106082256
aF5.209961446285297e-05
aF0.00012732365673542143
asI528
(lp499
F0.00031761156106082256
aF5.209961446285297e-05
aF0.00012732365673542143
asI530
(lp500
F0.00031761156106082256
aF5.209961446285297e-05
aF0.00012732365673542143
asI532
(lp501
F0.00031761156106082256
aF5.209961446285297e-05
aF0.00012732365673542143
asI533
(lp502
F0.00031761156106082256
aF5.209961446285297e-05
aF0.00012732365673542143
asI534
(lp503
F0.00031761156106082256
aF5.209961446285297e-05
aF0.00012732365673542143
asI535
(lp504
F0.00031761156106082256
aF5.209961446285297e-05
aF0.00012732365673542143
asI537
(lp505
F0.00031761156106082256
aF5.209961446285297e-05
aF0.00012732365673542143
asI538
(lp506
F0.00031761156106082256
aF5.209961446285297e-05
aF0.00012732365673542143
asI541
(lp507
F0.00031761156106082256
aF5.209961446285297e-05
aF0.00012732365673542143
asI542
(lp508
F0.00031761156106082256
aF5.209961446285297e-05
aF0.00012732365673542143
asI543
(lp509
F0.00031761156106082256
aF5.209961446285297e-05
aF0.00012732365673542143
asI544
(lp510
F0.00031761156106082256
aF5.209961446285297e-05
aF0.00012732365673542143
asI545
(lp511
F0.00031761156106082256
aF5.209961446285297e-05
aF0.00012732365673542143
asI546
(lp512
F0.00031761156106082256
aF5.209961446285297e-05
aF0.00012732365673542143
asI548
(lp513
F0.00031761156106082256
aF5.209961446285297e-05
aF0.00012732365673542143
asI549
(lp514
F0.00031761156106082256
aF5.209961446285297e-05
aF0.00012732365673542143
asI550
(lp515
F0.00031761156106082256
aF5.209961446285297e-05
aF0.00012732365673542143
asI552
(lp516
F0.00031761156106082256
aF5.209961446285297e-05
aF0.00012732365673542143
asI554
(lp517
F0.00031761156106082256
aF5.209961446285297e-05
aF0.00012732365673542143
asI555
(lp518
F0.00031761156106082256
aF5.209961446285297e-05
aF0.00012732365673542143
asI556
(lp519
F0.00031761156106082256
aF5.209961446285297e-05
aF0.00012732365673542143
asI557
(lp520
F0.00031761156106082256
aF5.209961446285297e-05
aF0.00012732365673542143
asI4654
(lp521
F0.00031761156106082256
aF5.209961446285297e-05
aF0.00012732365673542143
asI559
(lp522
F0.00031761156106082256
aF5.209961446285297e-05
aF0.00012732365673542143
asI560
(lp523
F0.00031761156106082256
aF5.209961446285297e-05
aF0.00012732365673542143
asI561
(lp524
F0.00031761156106082256
aF5.209961446285297e-05
aF0.00012732365673542143
asI563
(lp525
F0.00031761156106082256
aF5.209961446285297e-05
aF0.00012732365673542143
asI564
(lp526
F0.00031761156106082256
aF5.209961446285297e-05
aF0.00012732365673542143
asI568
(lp527
F0.00031761156106082256
aF5.209961446285297e-05
aF0.00012732365673542143
asI569
(lp528
F0.00031761156106082256
aF5.209961446285297e-05
aF0.00012732365673542143
asI570
(lp529
F0.00031761156106082256
aF5.209961446285297e-05
aF0.00012732365673542143
asI571
(lp530
F0.00031761156106082256
aF5.209961446285297e-05
aF0.00012732365673542143
asI572
(lp531
F0.00031761156106082256
aF5.209961446285297e-05
aF0.00012732365673542143
asI573
(lp532
F0.00031761156106082256
aF5.209961446285297e-05
aF0.00012732365673542143
asI574
(lp533
F0.00031761156106082256
aF5.209961446285297e-05
aF0.00012732365673542143
asI575
(lp534
F0.00031761156106082256
aF5.209961446285297e-05
aF0.00012732365673542143
asI576
(lp535
F0.00031761156106082256
aF5.209961446285297e-05
aF0.00012732365673542143
asI577
(lp536
F0.00031761156106082256
aF5.209961446285297e-05
aF0.00012732365673542143
asI6723
(lp537
F0.00031761156106082256
aF5.209961446285297e-05
aF0.00012732365673542143
asI582
(lp538
F0.00031761156106082256
aF5.209961446285297e-05
aF0.00012732365673542143
asI583
(lp539
F0.00031761156106082256
aF5.209961446285297e-05
aF0.00012732365673542143
asI584
(lp540
F0.00031761156106082256
aF5.209961446285297e-05
aF0.00012732365673542143
asI585
(lp541
F0.00031761156106082256
aF5.209961446285297e-05
aF0.00012732365673542143
asI586
(lp542
F0.00031761156106082256
aF5.209961446285297e-05
aF0.00012732365673542143
asI589
(lp543
F0.00031761156106082256
aF5.209961446285297e-05
aF0.00012732365673542143
asI590
(lp544
F0.00031761156106082256
aF5.209961446285297e-05
aF0.00012732365673542143
asI593
(lp545
F0.00031761156106082256
aF5.209961446285297e-05
aF0.00012732365673542143
asI2642
(lp546
F0.00031761156106082256
aF5.209961446285297e-05
aF0.00012732365673542143
asI595
(lp547
F0.00031761156106082256
aF5.209961446285297e-05
aF0.00012732365673542143
asI596
(lp548
F0.00031761156106082256
aF5.209961446285297e-05
aF0.00012732365673542143
asI599
(lp549
F0.00031761156106082256
aF5.209961446285297e-05
aF0.00012732365673542143
asI601
(lp550
F0.00031761156106082256
aF5.209961446285297e-05
aF0.00012732365673542143
asI602
(lp551
F0.00031761156106082256
aF5.209961446285297e-05
aF0.00012732365673542143
asI603
(lp552
F0.00031761156106082256
aF5.209961446285297e-05
aF0.00012732365673542143
asI605
(lp553
F0.00031761156106082256
aF5.209961446285297e-05
aF0.00012732365673542143
asI606
(lp554
F0.00031761156106082256
aF5.209961446285297e-05
aF0.00012732365673542143
asI607
(lp555
F0.00031761156106082256
aF5.209961446285297e-05
aF0.00012732365673542143
asI608
(lp556
F0.00031761156106082256
aF5.209961446285297e-05
aF0.00012732365673542143
asI609
(lp557
F0.00031761156106082256
aF5.209961446285297e-05
aF0.00012732365673542143
asI611
(lp558
F0.00031761156106082256
aF5.209961446285297e-05
aF0.00012732365673542143
asI612
(lp559
F0.00031761156106082256
aF5.209961446285297e-05
aF0.00012732365673542143
asI613
(lp560
F0.00031761156106082256
aF5.209961446285297e-05
aF0.00012732365673542143
asI614
(lp561
F0.00031761156106082256
aF5.209961446285297e-05
aF0.00012732365673542143
asI616
(lp562
F0.00031761156106082256
aF5.209961446285297e-05
aF0.00012732365673542143
asI2665
(lp563
F0.00031761156106082256
aF5.209961446285297e-05
aF0.00012732365673542143
asI618
(lp564
F0.00031761156106082256
aF5.209961446285297e-05
aF0.00012732365673542143
asI621
(lp565
F0.00031761156106082256
aF5.209961446285297e-05
aF0.00012732365673542143
asI622
(lp566
F0.00031761156106082256
aF5.209961446285297e-05
aF0.00012732365673542143
asI625
(lp567
F0.00031761156106082256
aF5.209961446285297e-05
aF0.00012732365673542143
asI628
(lp568
F0.00031761156106082256
aF5.209961446285297e-05
aF0.00012732365673542143
asI629
(lp569
F0.00031761156106082256
aF5.209961446285297e-05
aF0.00012732365673542143
asI631
(lp570
F0.00031761156106082256
aF5.209961446285297e-05
aF0.00012732365673542143
asI632
(lp571
F0.00031761156106082256
aF5.209961446285297e-05
aF0.00012732365673542143
asI633
(lp572
F0.00031761156106082256
aF5.209961446285297e-05
aF0.00012732365673542143
asI637
(lp573
F0.00031761156106082256
aF5.209961446285297e-05
aF0.00012732365673542143
asI2067
(lp574
F0.00031761156106082256
aF5.209961446285297e-05
aF0.00012732365673542143
asI641
(lp575
F0.00031761156106082256
aF5.209961446285297e-05
aF0.00012732365673542143
asI644
(lp576
F0.00031761156106082256
aF5.209961446285297e-05
aF0.00012732365673542143
asI646
(lp577
F0.00031761156106082256
aF5.209961446285297e-05
aF0.00012732365673542143
asI647
(lp578
F0.00031761156106082256
aF5.209961446285297e-05
aF0.00012732365673542143
asI651
(lp579
F0.00031761156106082256
aF5.209961446285297e-05
aF0.00012732365673542143
asI652
(lp580
F0.00031761156106082256
aF5.209961446285297e-05
aF0.00012732365673542143
asI654
(lp581
F0.00031761156106082256
aF5.209961446285297e-05
aF0.00012732365673542143
asI655
(lp582
F0.00031761156106082256
aF5.209961446285297e-05
aF0.00012732365673542143
asI656
(lp583
F0.00031761156106082256
aF5.209961446285297e-05
aF0.00012732365673542143
asI660
(lp584
F0.00031761156106082256
aF5.209961446285297e-05
aF0.00012732365673542143
asI2709
(lp585
F0.00031761156106082256
aF5.209961446285297e-05
aF0.00012732365673542143
asI663
(lp586
F0.00031761156106082256
aF5.209961446285297e-05
aF0.00012732365673542143
asI664
(lp587
F0.00031761156106082256
aF5.209961446285297e-05
aF0.00012732365673542143
asI665
(lp588
F0.00031761156106082256
aF5.209961446285297e-05
aF0.00012732365673542143
asI2714
(lp589
F0.00031761156106082256
aF5.209961446285297e-05
aF0.00012732365673542143
asI668
(lp590
F0.00031761156106082256
aF5.209961446285297e-05
aF0.00012732365673542143
asI670
(lp591
F0.00031761156106082256
aF5.209961446285297e-05
aF0.00012732365673542143
asI671
(lp592
F0.00031761156106082256
aF5.209961446285297e-05
aF0.00012732365673542143
asI672
(lp593
F0.00031761156106082256
aF5.209961446285297e-05
aF0.00012732365673542143
asI673
(lp594
F0.00031761156106082256
aF5.209961446285297e-05
aF0.00012732365673542143
asI675
(lp595
F0.00031761156106082256
aF5.209961446285297e-05
aF0.00012732365673542143
asI677
(lp596
F0.00031761156106082256
aF5.209961446285297e-05
aF0.00012732365673542143
asI678
(lp597
F0.00031761156106082256
aF5.209961446285297e-05
aF0.00012732365673542143
asI679
(lp598
F0.00031761156106082256
aF5.209961446285297e-05
aF0.00012732365673542143
asI681
(lp599
F0.00031761156106082256
aF5.209961446285297e-05
aF0.00012732365673542143
asI682
(lp600
F0.00031761156106082256
aF5.209961446285297e-05
aF0.00012732365673542143
asI684
(lp601
F0.00031761156106082256
aF5.209961446285297e-05
aF0.00012732365673542143
asI685
(lp602
F0.00031761156106082256
aF5.209961446285297e-05
aF0.00012732365673542143
asI686
(lp603
F0.00031761156106082256
aF5.209961446285297e-05
aF0.00012732365673542143
asI687
(lp604
F0.00031761156106082256
aF5.209961446285297e-05
aF0.00012732365673542143
asI693
(lp605
F0.00031761156106082256
aF5.209961446285297e-05
aF0.00012732365673542143
asI694
(lp606
F0.00031761156106082256
aF5.209961446285297e-05
aF0.00012732365673542143
asI3529
(lp607
F0.00031761156106082256
aF5.209961446285297e-05
aF0.00012732365673542143
asI700
(lp608
F0.00031761156106082256
aF5.209961446285297e-05
aF0.00012732365673542143
asI701
(lp609
F0.00031761156106082256
aF5.209961446285297e-05
aF0.00012732365673542143
asI6846
(lp610
F0.00031761156106082256
aF5.209961446285297e-05
aF0.00012732365673542143
asI706
(lp611
F0.00031761156106082256
aF5.209961446285297e-05
aF0.00012732365673542143
asI707
(lp612
F0.00031761156106082256
aF5.209961446285297e-05
aF0.00012732365673542143
asI709
(lp613
F0.00031761156106082256
aF5.209961446285297e-05
aF0.00012732365673542143
asI712
(lp614
F0.00031761156106082256
aF5.209961446285297e-05
aF0.00012732365673542143
asI713
(lp615
F0.00031761156106082256
aF5.209961446285297e-05
aF0.00012732365673542143
asI716
(lp616
F0.00031761156106082256
aF5.209961446285297e-05
aF0.00012732365673542143
asI717
(lp617
F0.00031761156106082256
aF5.209961446285297e-05
aF0.00012732365673542143
asI718
(lp618
F0.00031761156106082256
aF5.209961446285297e-05
aF0.00012732365673542143
asI719
(lp619
F0.00031761156106082256
aF5.209961446285297e-05
aF0.00012732365673542143
asI720
(lp620
F0.00031761156106082256
aF5.209961446285297e-05
aF0.00012732365673542143
asI725
(lp621
F0.00031761156106082256
aF5.209961446285297e-05
aF0.00012732365673542143
asI726
(lp622
F0.00031761156106082256
aF5.209961446285297e-05
aF0.00012732365673542143
asI729
(lp623
F0.00031761156106082256
aF5.209961446285297e-05
aF0.00012732365673542143
asI733
(lp624
F0.00031761156106082256
aF5.209961446285297e-05
aF0.00012732365673542143
asI734
(lp625
F0.00031761156106082256
aF5.209961446285297e-05
aF0.00012732365673542143
asI736
(lp626
F0.00031761156106082256
aF5.209961446285297e-05
aF0.00012732365673542143
asI737
(lp627
F0.00031761156106082256
aF5.209961446285297e-05
aF0.00012732365673542143
asI740
(lp628
F0.00031761156106082256
aF5.209961446285297e-05
aF0.00012732365673542143
asI746
(lp629
F0.00031761156106082256
aF5.209961446285297e-05
aF0.00012732365673542143
asI749
(lp630
F0.00031761156106082256
aF5.209961446285297e-05
aF0.00012732365673542143
asI750
(lp631
F0.00031761156106082256
aF5.209961446285297e-05
aF0.00012732365673542143
asI753
(lp632
F0.00031761156106082256
aF5.209961446285297e-05
aF0.00012732365673542143
asI754
(lp633
F0.00031761156106082256
aF5.209961446285297e-05
aF0.00012732365673542143
asI757
(lp634
F0.00031761156106082256
aF5.209961446285297e-05
aF0.00012732365673542143
asI758
(lp635
F0.00031761156106082256
aF5.209961446285297e-05
aF0.00012732365673542143
asI759
(lp636
F0.00031761156106082256
aF5.209961446285297e-05
aF0.00012732365673542143
asI761
(lp637
F0.00031761156106082256
aF5.209961446285297e-05
aF0.00012732365673542143
asI762
(lp638
F0.00031761156106082256
aF5.209961446285297e-05
aF0.00012732365673542143
asI763
(lp639
F0.00031761156106082256
aF5.209961446285297e-05
aF0.00012732365673542143
asI766
(lp640
F0.00031761156106082256
aF5.209961446285297e-05
aF0.00012732365673542143
asI767
(lp641
F0.00031761156106082256
aF5.209961446285297e-05
aF0.00012732365673542143
asI773
(lp642
F0.00031761156106082256
aF5.209961446285297e-05
aF0.00012732365673542143
asI776
(lp643
F0.00031761156106082256
aF5.209961446285297e-05
aF0.00012732365673542143
asI777
(lp644
F0.00031761156106082256
aF5.209961446285297e-05
aF0.00012732365673542143
asI780
(lp645
F0.00031761156106082256
aF5.209961446285297e-05
aF0.00012732365673542143
asI781
(lp646
F0.00031761156106082256
aF5.209961446285297e-05
aF0.00012732365673542143
asI785
(lp647
F0.00031761156106082256
aF5.209961446285297e-05
aF0.00012732365673542143
asI786
(lp648
F0.00031761156106082256
aF5.209961446285297e-05
aF0.00012732365673542143
asI787
(lp649
F0.00031761156106082256
aF5.209961446285297e-05
aF0.00012732365673542143
asI788
(lp650
F0.00031761156106082256
aF5.209961446285297e-05
aF0.00012732365673542143
asI790
(lp651
F0.00031761156106082256
aF5.209961446285297e-05
aF0.00012732365673542143
asI791
(lp652
F0.00031761156106082256
aF5.209961446285297e-05
aF0.00012732365673542143
asI2180
(lp653
F0.00031761156106082256
aF5.209961446285297e-05
aF0.00012732365673542143
asI802
(lp654
F0.00031761156106082256
aF5.209961446285297e-05
aF0.00012732365673542143
asI810
(lp655
F0.00031761156106082256
aF5.209961446285297e-05
aF0.00012732365673542143
asI812
(lp656
F0.00031761156106082256
aF5.209961446285297e-05
aF0.00012732365673542143
asI813
(lp657
F0.00031761156106082256
aF5.209961446285297e-05
aF0.00012732365673542143
asI815
(lp658
F0.00031761156106082256
aF5.209961446285297e-05
aF0.00012732365673542143
asI817
(lp659
F0.00031761156106082256
aF5.209961446285297e-05
aF0.00012732365673542143
asI819
(lp660
F0.00031761156106082256
aF5.209961446285297e-05
aF0.00012732365673542143
asI826
(lp661
F0.00031761156106082256
aF5.209961446285297e-05
aF0.00012732365673542143
asI830
(lp662
F0.00031761156106082256
aF5.209961446285297e-05
aF0.00012732365673542143
asI835
(lp663
F0.00031761156106082256
aF5.209961446285297e-05
aF0.00012732365673542143
asI836
(lp664
F0.00031761156106082256
aF5.209961446285297e-05
aF0.00012732365673542143
asI840
(lp665
F0.00031761156106082256
aF5.209961446285297e-05
aF0.00012732365673542143
asI844
(lp666
F0.00031761156106082256
aF5.209961446285297e-05
aF0.00012732365673542143
asI847
(lp667
F0.00031761156106082256
aF5.209961446285297e-05
aF0.00012732365673542143
asI850
(lp668
F0.00031761156106082256
aF5.209961446285297e-05
aF0.00012732365673542143
asI851
(lp669
F0.00031761156106082256
aF5.209961446285297e-05
aF0.00012732365673542143
asI854
(lp670
F0.00031761156106082256
aF5.209961446285297e-05
aF0.00012732365673542143
asI856
(lp671
F0.00031761156106082256
aF5.209961446285297e-05
aF0.00012732365673542143
asI857
(lp672
F0.00031761156106082256
aF5.209961446285297e-05
aF0.00012732365673542143
asI866
(lp673
F0.00031761156106082256
aF5.209961446285297e-05
aF0.00012732365673542143
asI867
(lp674
F0.00031761156106082256
aF5.209961446285297e-05
aF0.00012732365673542143
asI868
(lp675
F0.00031761156106082256
aF5.209961446285297e-05
aF0.00012732365673542143
asI869
(lp676
F0.00031761156106082256
aF5.209961446285297e-05
aF0.00012732365673542143
asI870
(lp677
F0.00031761156106082256
aF5.209961446285297e-05
aF0.00012732365673542143
asI872
(lp678
F0.00031761156106082256
aF5.209961446285297e-05
aF0.00012732365673542143
asI873
(lp679
F0.00031761156106082256
aF5.209961446285297e-05
aF0.00012732365673542143
asI874
(lp680
F0.00031761156106082256
aF5.209961446285297e-05
aF0.00012732365673542143
asI879
(lp681
F0.00031761156106082256
aF5.209961446285297e-05
aF0.00012732365673542143
asI881
(lp682
F0.00031761156106082256
aF5.209961446285297e-05
aF0.00012732365673542143
asI882
(lp683
F0.00031761156106082256
aF5.209961446285297e-05
aF0.00012732365673542143
asI883
(lp684
F0.00031761156106082256
aF5.209961446285297e-05
aF0.00012732365673542143
asI884
(lp685
F0.00031761156106082256
aF5.209961446285297e-05
aF0.00012732365673542143
asI886
(lp686
F0.00031761156106082256
aF5.209961446285297e-05
aF0.00012732365673542143
asI888
(lp687
F0.00031761156106082256
aF5.209961446285297e-05
aF0.00012732365673542143
asI889
(lp688
F0.00031761156106082256
aF5.209961446285297e-05
aF0.00012732365673542143
asI891
(lp689
F0.00031761156106082256
aF5.209961446285297e-05
aF0.00012732365673542143
asI892
(lp690
F0.00031761156106082256
aF5.209961446285297e-05
aF0.00012732365673542143
asI893
(lp691
F0.00031761156106082256
aF5.209961446285297e-05
aF0.00012732365673542143
asI896
(lp692
F0.00031761156106082256
aF5.209961446285297e-05
aF0.00012732365673542143
asI897
(lp693
F0.00031761156106082256
aF5.209961446285297e-05
aF0.00012732365673542143
asI900
(lp694
F0.00031761156106082256
aF5.209961446285297e-05
aF0.00012732365673542143
asI903
(lp695
F0.00031761156106082256
aF5.209961446285297e-05
aF0.00012732365673542143
asI904
(lp696
F0.00031761156106082256
aF5.209961446285297e-05
aF0.00012732365673542143
asI907
(lp697
F0.00031761156106082256
aF5.209961446285297e-05
aF0.00012732365673542143
asI914
(lp698
F0.00031761156106082256
aF5.209961446285297e-05
aF0.00012732365673542143
asI922
(lp699
F0.00031761156106082256
aF5.209961446285297e-05
aF0.00012732365673542143
asI925
(lp700
F0.00031761156106082256
aF5.209961446285297e-05
aF0.00012732365673542143
asI929
(lp701
F0.00031761156106082256
aF5.209961446285297e-05
aF0.00012732365673542143
asI935
(lp702
F0.00031761156106082256
aF5.209961446285297e-05
aF0.00012732365673542143
asI372
(lp703
F0.00031761156106082256
aF5.209961446285297e-05
aF0.00012732365673542143
asI944
(lp704
F0.00031761156106082256
aF5.209961446285297e-05
aF0.00012732365673542143
asI946
(lp705
F0.00031761156106082256
aF5.209961446285297e-05
aF0.00012732365673542143
asI951
(lp706
F0.00031761156106082256
aF5.209961446285297e-05
aF0.00012732365673542143
asI952
(lp707
F0.00031761156106082256
aF5.209961446285297e-05
aF0.00012732365673542143
asI954
(lp708
F0.00031761156106082256
aF5.209961446285297e-05
aF0.00012732365673542143
asI963
(lp709
F0.00031761156106082256
aF5.209961446285297e-05
aF0.00012732365673542143
asI970
(lp710
F0.00031761156106082256
aF5.209961446285297e-05
aF0.00012732365673542143
asI972
(lp711
F0.00031761156106082256
aF5.209961446285297e-05
aF0.00012732365673542143
asI973
(lp712
F0.00031761156106082256
aF5.209961446285297e-05
aF0.00012732365673542143
asI978
(lp713
F0.00031761156106082256
aF5.209961446285297e-05
aF0.00012732365673542143
asI980
(lp714
F0.00031761156106082256
aF5.209961446285297e-05
aF0.00012732365673542143
asI982
(lp715
F0.00031761156106082256
aF5.209961446285297e-05
aF0.00012732365673542143
asI984
(lp716
F0.00031761156106082256
aF5.209961446285297e-05
aF0.00012732365673542143
asI986
(lp717
F0.00031761156106082256
aF5.209961446285297e-05
aF0.00012732365673542143
asI3035
(lp718
F0.00031761156106082256
aF5.209961446285297e-05
aF0.00012732365673542143
asI702
(lp719
F0.00031761156106082256
aF5.209961446285297e-05
aF0.00012732365673542143
asI991
(lp720
F0.00031761156106082256
aF5.209961446285297e-05
aF0.00012732365673542143
asI993
(lp721
F0.00031761156106082256
aF5.209961446285297e-05
aF0.00012732365673542143
asI995
(lp722
F0.00031761156106082256
aF5.209961446285297e-05
aF0.00012732365673542143
asI998
(lp723
F0.00031761156106082256
aF5.209961446285297e-05
aF0.00012732365673542143
asI1000
(lp724
F0.00031761156106082256
aF5.209961446285297e-05
aF0.00012732365673542143
asI1003
(lp725
F0.00031761156106082256
aF5.209961446285297e-05
aF0.00012732365673542143
asI1015
(lp726
F0.00031761156106082256
aF5.209961446285297e-05
aF0.00012732365673542143
asI1017
(lp727
F0.00031761156106082256
aF5.209961446285297e-05
aF0.00012732365673542143
asI511
(lp728
F0.00031761156106082256
aF5.209961446285297e-05
aF0.00012732365673542143
asI1022
(lp729
F0.00031761156106082256
aF5.209961446285297e-05
aF0.00012732365673542143
asI3071
(lp730
F0.00031761156106082256
aF5.209961446285297e-05
aF0.00012732365673542143
asI375
(lp731
F0.00031761156106082256
aF5.209961446285297e-05
aF0.00012732365673542143
asI1029
(lp732
F0.00031761156106082256
aF5.209961446285297e-05
aF0.00012732365673542143
asI1033
(lp733
F0.00031761156106082256
aF5.209961446285297e-05
aF0.00012732365673542143
asI1034
(lp734
F0.00031761156106082256
aF5.209961446285297e-05
aF0.00012732365673542143
asI1037
(lp735
F0.00031761156106082256
aF5.209961446285297e-05
aF0.00012732365673542143
asI3088
(lp736
F0.00031761156106082256
aF5.209961446285297e-05
aF0.00012732365673542143
asI1049
(lp737
F0.00031761156106082256
aF5.209961446285297e-05
aF0.00012732365673542143
asI1050
(lp738
F0.00031761156106082256
aF5.209961446285297e-05
aF0.00012732365673542143
asI1051
(lp739
F0.00031761156106082256
aF5.209961446285297e-05
aF0.00012732365673542143
asI1053
(lp740
F0.00031761156106082256
aF5.209961446285297e-05
aF0.00012732365673542143
asI1067
(lp741
F0.00031761156106082256
aF5.209961446285297e-05
aF0.00012732365673542143
asI1068
(lp742
F0.00031761156106082256
aF5.209961446285297e-05
aF0.00012732365673542143
asI1082
(lp743
F0.00031761156106082256
aF5.209961446285297e-05
aF0.00012732365673542143
asI1083
(lp744
F0.00031761156106082256
aF5.209961446285297e-05
aF0.00012732365673542143
asI1090
(lp745
F0.00031761156106082256
aF5.209961446285297e-05
aF0.00012732365673542143
asI1092
(lp746
F0.00031761156106082256
aF5.209961446285297e-05
aF0.00012732365673542143
asI1093
(lp747
F0.00031761156106082256
aF5.209961446285297e-05
aF0.00012732365673542143
asI1096
(lp748
F0.00031761156106082256
aF5.209961446285297e-05
aF0.00012732365673542143
asI1101
(lp749
F0.00031761156106082256
aF5.209961446285297e-05
aF0.00012732365673542143
asI1102
(lp750
F0.00031761156106082256
aF5.209961446285297e-05
aF0.00012732365673542143
asI1107
(lp751
F0.00031761156106082256
aF5.209961446285297e-05
aF0.00012732365673542143
asI1108
(lp752
F0.00031761156106082256
aF5.209961446285297e-05
aF0.00012732365673542143
asI1109
(lp753
F0.00031761156106082256
aF5.209961446285297e-05
aF0.00012732365673542143
asI1112
(lp754
F0.00031761156106082256
aF5.209961446285297e-05
aF0.00012732365673542143
asI1114
(lp755
F0.00031761156106082256
aF5.209961446285297e-05
aF0.00012732365673542143
asI1117
(lp756
F0.00031761156106082256
aF5.209961446285297e-05
aF0.00012732365673542143
asI1123
(lp757
F0.00031761156106082256
aF5.209961446285297e-05
aF0.00012732365673542143
asI1126
(lp758
F0.00031761156106082256
aF5.209961446285297e-05
aF0.00012732365673542143
asI1132
(lp759
F0.00031761156106082256
aF5.209961446285297e-05
aF0.00012732365673542143
asI1134
(lp760
F0.00031761156106082256
aF5.209961446285297e-05
aF0.00012732365673542143
asI1137
(lp761
F0.00031761156106082256
aF5.209961446285297e-05
aF0.00012732365673542143
asI362
(lp762
F0.00031761156106082256
aF5.209961446285297e-05
aF0.00012732365673542143
asI1140
(lp763
F0.00031761156106082256
aF5.209961446285297e-05
aF0.00012732365673542143
asI1146
(lp764
F0.00031761156106082256
aF5.209961446285297e-05
aF0.00012732365673542143
asI1151
(lp765
F0.00031761156106082256
aF5.209961446285297e-05
aF0.00012732365673542143
asI1152
(lp766
F0.00031761156106082256
aF5.209961446285297e-05
aF0.00012732365673542143
asI1154
(lp767
F0.00031761156106082256
aF5.209961446285297e-05
aF0.00012732365673542143
asI1162
(lp768
F0.00031761156106082256
aF5.209961446285297e-05
aF0.00012732365673542143
asI1165
(lp769
F0.00031761156106082256
aF5.209961446285297e-05
aF0.00012732365673542143
asI1167
(lp770
F0.00031761156106082256
aF5.209961446285297e-05
aF0.00012732365673542143
asI2243
(lp771
F0.00031761156106082256
aF5.209961446285297e-05
aF0.00012732365673542143
asI1174
(lp772
F0.00031761156106082256
aF5.209961446285297e-05
aF0.00012732365673542143
asI1176
(lp773
F0.00031761156106082256
aF5.209961446285297e-05
aF0.00012732365673542143
asI3232
(lp774
F0.00031761156106082256
aF5.209961446285297e-05
aF0.00012732365673542143
asI1187
(lp775
F0.00031761156106082256
aF5.209961446285297e-05
aF0.00012732365673542143
asI3237
(lp776
F0.00031761156106082256
aF5.209961446285297e-05
aF0.00012732365673542143
asI1192
(lp777
F0.00031761156106082256
aF5.209961446285297e-05
aF0.00012732365673542143
asI1194
(lp778
F0.00031761156106082256
aF5.209961446285297e-05
aF0.00012732365673542143
asI1196
(lp779
F0.00031761156106082256
aF5.209961446285297e-05
aF0.00012732365673542143
asI1199
(lp780
F0.00031761156106082256
aF5.209961446285297e-05
aF0.00012732365673542143
asI1201
(lp781
F0.00031761156106082256
aF5.209961446285297e-05
aF0.00012732365673542143
asI1202
(lp782
F0.00031761156106082256
aF5.209961446285297e-05
aF0.00012732365673542143
asI1205
(lp783
F0.00031761156106082256
aF5.209961446285297e-05
aF0.00012732365673542143
asI1213
(lp784
F0.00031761156106082256
aF5.209961446285297e-05
aF0.00012732365673542143
asI1217
(lp785
F0.00031761156106082256
aF5.209961446285297e-05
aF0.00012732365673542143
asI1220
(lp786
F0.00031761156106082256
aF5.209961446285297e-05
aF0.00012732365673542143
asI3286
(lp787
F0.00031761156106082256
aF5.209961446285297e-05
aF0.00012732365673542143
asI1243
(lp788
F0.00031761156106082256
aF5.209961446285297e-05
aF0.00012732365673542143
asI1246
(lp789
F0.00031761156106082256
aF5.209961446285297e-05
aF0.00012732365673542143
asI1248
(lp790
F0.00031761156106082256
aF5.209961446285297e-05
aF0.00012732365673542143
asI2256
(lp791
F0.00031761156106082256
aF5.209961446285297e-05
aF0.00012732365673542143
asI1260
(lp792
F0.00031761156106082256
aF5.209961446285297e-05
aF0.00012732365673542143
asI1262
(lp793
F0.00031761156106082256
aF5.209961446285297e-05
aF0.00012732365673542143
asI1263
(lp794
F0.00031761156106082256
aF5.209961446285297e-05
aF0.00012732365673542143
asI1272
(lp795
F0.00031761156106082256
aF5.209961446285297e-05
aF0.00012732365673542143
asI1276
(lp796
F0.00031761156106082256
aF5.209961446285297e-05
aF0.00012732365673542143
asI1277
(lp797
F0.00031761156106082256
aF5.209961446285297e-05
aF0.00012732365673542143
asI2261
(lp798
F0.00031761156106082256
aF5.209961446285297e-05
aF0.00012732365673542143
asI1280
(lp799
F0.00031761156106082256
aF5.209961446285297e-05
aF0.00012732365673542143
asI1281
(lp800
F0.00031761156106082256
aF5.209961446285297e-05
aF0.00012732365673542143
asI1286
(lp801
F0.00031761156106082256
aF5.209961446285297e-05
aF0.00012732365673542143
asI1290
(lp802
F0.00031761156106082256
aF5.209961446285297e-05
aF0.00012732365673542143
asI1292
(lp803
F0.00031761156106082256
aF5.209961446285297e-05
aF0.00012732365673542143
asI1293
(lp804
F0.00031761156106082256
aF5.209961446285297e-05
aF0.00012732365673542143
asI1301
(lp805
F0.00031761156106082256
aF5.209961446285297e-05
aF0.00012732365673542143
asI1304
(lp806
F0.00031761156106082256
aF5.209961446285297e-05
aF0.00012732365673542143
asI1305
(lp807
F0.00031761156106082256
aF5.209961446285297e-05
aF0.00012732365673542143
asI2266
(lp808
F0.00031761156106082256
aF5.209961446285297e-05
aF0.00012732365673542143
asI1316
(lp809
F0.00031761156106082256
aF5.209961446285297e-05
aF0.00012732365673542143
asI1327
(lp810
F0.00031761156106082256
aF5.209961446285297e-05
aF0.00012732365673542143
asI1331
(lp811
F0.00031761156106082256
aF5.209961446285297e-05
aF0.00012732365673542143
asI1337
(lp812
F0.00031761156106082256
aF5.209961446285297e-05
aF0.00012732365673542143
asI1338
(lp813
F0.00031761156106082256
aF5.209961446285297e-05
aF0.00012732365673542143
asI1344
(lp814
F0.00031761156106082256
aF5.209961446285297e-05
aF0.00012732365673542143
asI1249
(lp815
F0.00031761156106082256
aF5.209961446285297e-05
aF0.00012732365673542143
asI1354
(lp816
F0.00031761156106082256
aF5.209961446285297e-05
aF0.00012732365673542143
asI1364
(lp817
F0.00031761156106082256
aF5.209961446285297e-05
aF0.00012732365673542143
asI1369
(lp818
F0.00031761156106082256
aF5.209961446285297e-05
aF0.00012732365673542143
asI7517
(lp819
F0.00031761156106082256
aF5.209961446285297e-05
aF0.00012732365673542143
asI1378
(lp820
F0.00031761156106082256
aF5.209961446285297e-05
aF0.00012732365673542143
asI1379
(lp821
F0.00031761156106082256
aF5.209961446285297e-05
aF0.00012732365673542143
asI1383
(lp822
F0.00031761156106082256
aF5.209961446285297e-05
aF0.00012732365673542143
asI1391
(lp823
F0.00031761156106082256
aF5.209961446285297e-05
aF0.00012732365673542143
asI1395
(lp824
F0.00031761156106082256
aF5.209961446285297e-05
aF0.00012732365673542143
asI1397
(lp825
F0.00031761156106082256
aF5.209961446285297e-05
aF0.00012732365673542143
asI2281
(lp826
F0.00031761156106082256
aF5.209961446285297e-05
aF0.00012732365673542143
asI1401
(lp827
F0.00031761156106082256
aF5.209961446285297e-05
aF0.00012732365673542143
asI1410
(lp828
F0.00031761156106082256
aF5.209961446285297e-05
aF0.00012732365673542143
asI1412
(lp829
F0.00031761156106082256
aF5.209961446285297e-05
aF0.00012732365673542143
asI1414
(lp830
F0.00031761156106082256
aF5.209961446285297e-05
aF0.00012732365673542143
asI1421
(lp831
F0.00031761156106082256
aF5.209961446285297e-05
aF0.00012732365673542143
asI2434
(lp832
F0.00031761156106082256
aF5.209961446285297e-05
aF0.00012732365673542143
asI2137
(lp833
F0.00031761156106082256
aF5.209961446285297e-05
aF0.00012732365673542143
asI579
(lp834
F0.00031761156106082256
aF5.209961446285297e-05
aF0.00012732365673542143
asI1429
(lp835
F0.00031761156106082256
aF5.209961446285297e-05
aF0.00012732365673542143
asI1444
(lp836
F0.00031761156106082256
aF5.209961446285297e-05
aF0.00012732365673542143
asI2162
(lp837
F0.00031761156106082256
aF5.209961446285297e-05
aF0.00012732365673542143
asI1448
(lp838
F0.00031761156106082256
aF5.209961446285297e-05
aF0.00012732365673542143
asI1451
(lp839
F0.00031761156106082256
aF5.209961446285297e-05
aF0.00012732365673542143
asI1458
(lp840
F0.00031761156106082256
aF5.209961446285297e-05
aF0.00012732365673542143
asI1468
(lp841
F0.00031761156106082256
aF5.209961446285297e-05
aF0.00012732365673542143
asI2634
(lp842
F0.00031761156106082256
aF5.209961446285297e-05
aF0.00012732365673542143
asI3520
(lp843
F0.00031761156106082256
aF5.209961446285297e-05
aF0.00012732365673542143
asI1480
(lp844
F0.00031761156106082256
aF5.209961446285297e-05
aF0.00012732365673542143
asI2095
(lp845
F0.00031761156106082256
aF5.209961446285297e-05
aF0.00012732365673542143
asI1485
(lp846
F0.00031761156106082256
aF5.209961446285297e-05
aF0.00012732365673542143
asI1499
(lp847
F0.00031761156106082256
aF5.209961446285297e-05
aF0.00012732365673542143
asI1505
(lp848
F0.00031761156106082256
aF5.209961446285297e-05
aF0.00012732365673542143
asI594
(lp849
F0.00031761156106082256
aF5.209961446285297e-05
aF0.00012732365673542143
asI1522
(lp850
F0.00031761156106082256
aF5.209961446285297e-05
aF0.00012732365673542143
asI1523
(lp851
F0.00031761156106082256
aF5.209961446285297e-05
aF0.00012732365673542143
asI1570
(lp852
F0.00031761156106082256
aF5.209961446285297e-05
aF0.00012732365673542143
asI1584
(lp853
F0.00031761156106082256
aF5.209961446285297e-05
aF0.00012732365673542143
asI793
(lp854
F0.00031761156106082256
aF5.209961446285297e-05
aF0.00012732365673542143
asI1592
(lp855
F0.00031761156106082256
aF5.209961446285297e-05
aF0.00012732365673542143
asI1596
(lp856
F0.00031761156106082256
aF5.209961446285297e-05
aF0.00012732365673542143
asI2657
(lp857
F0.00031761156106082256
aF5.209961446285297e-05
aF0.00012732365673542143
asI1611
(lp858
F0.00031761156106082256
aF5.209961446285297e-05
aF0.00012732365673542143
asI1615
(lp859
F0.00031761156106082256
aF5.209961446285297e-05
aF0.00012732365673542143
asI2319
(lp860
F0.00031761156106082256
aF5.209961446285297e-05
aF0.00012732365673542143
asI2101
(lp861
F0.00031761156106082256
aF5.209961446285297e-05
aF0.00012732365673542143
asI3711
(lp862
F0.00031761156106082256
aF5.209961446285297e-05
aF0.00012732365673542143
asI1664
(lp863
F0.00031761156106082256
aF5.209961446285297e-05
aF0.00012732365673542143
asI1668
(lp864
F0.00031761156106082256
aF5.209961446285297e-05
aF0.00012732365673542143
asI1675
(lp865
F0.00031761156106082256
aF5.209961446285297e-05
aF0.00012732365673542143
asI280
(lp866
F0.00031761156106082256
aF5.209961446285297e-05
aF0.00012732365673542143
asI1683
(lp867
F0.00031761156106082256
aF5.209961446285297e-05
aF0.00012732365673542143
asI1693
(lp868
F0.00031761156106082256
aF5.209961446285297e-05
aF0.00012732365673542143
asI1716
(lp869
F0.00031761156106082256
aF5.209961446285297e-05
aF0.00012732365673542143
asI1731
(lp870
F0.00031761156106082256
aF5.209961446285297e-05
aF0.00012732365673542143
asI1734
(lp871
F0.00031761156106082256
aF5.209961446285297e-05
aF0.00012732365673542143
asI1738
(lp872
F0.00031761156106082256
aF5.209961446285297e-05
aF0.00012732365673542143
asI1743
(lp873
F0.00031761156106082256
aF5.209961446285297e-05
aF0.00012732365673542143
asI2681
(lp874
F0.00031761156106082256
aF5.209961446285297e-05
aF0.00012732365673542143
asI1761
(lp875
F0.00031761156106082256
aF5.209961446285297e-05
aF0.00012732365673542143
asI1766
(lp876
F0.00031761156106082256
aF5.209961446285297e-05
aF0.00012732365673542143
asI1773
(lp877
F0.00031761156106082256
aF5.209961446285297e-05
aF0.00012732365673542143
asI3824
(lp878
F0.00031761156106082256
aF5.209961446285297e-05
aF0.00012732365673542143
asI1817
(lp879
F0.00031761156106082256
aF5.209961446285297e-05
aF0.00012732365673542143
asI1825
(lp880
F0.00031761156106082256
aF5.209961446285297e-05
aF0.00012732365673542143
asI1848
(lp881
F0.00031761156106082256
aF5.209961446285297e-05
aF0.00012732365673542143
asI1856
(lp882
F0.00031761156106082256
aF5.209961446285297e-05
aF0.00012732365673542143
asI1868
(lp883
F0.00031761156106082256
aF5.209961446285297e-05
aF0.00012732365673542143
asI10068
(lp884
F0.00031761156106082256
aF5.209961446285297e-05
aF0.00012732365673542143
asI1878
(lp885
F0.00031761156106082256
aF5.209961446285297e-05
aF0.00012732365673542143
asI1879
(lp886
F0.00031761156106082256
aF5.209961446285297e-05
aF0.00012732365673542143
asI558
(lp887
F0.00031761156106082256
aF5.209961446285297e-05
aF0.00012732365673542143
asI1964
(lp888
F0.00031761156106082256
aF5.209961446285297e-05
aF0.00012732365673542143
asI4019
(lp889
F0.00031761156106082256
aF5.209961446285297e-05
aF0.00012732365673542143
asI4028
(lp890
F0.00031761156106082256
aF5.209961446285297e-05
aF0.00012732365673542143
asI2021
(lp891
F0.00031761156106082256
aF5.209961446285297e-05
aF0.00012732365673542143
asI6614
(lp892
F0.00031761156106082256
aF5.209961446285297e-05
aF0.00012732365673542143
asI2047
(lp893
F0.00031761156106082256
aF5.209961446285297e-05
aF0.00012732365673542143
as.